((dp0
S'arm_dbg_args'
p1
S'-via:"c:\\Users\\ext.vicu\\Desktop\\App\\app\\App\\build_app_vc12\\App_vc12_arm_debug.via" -qemu'
p2
sS'game-icf'
p3
S''
p4
sS'dist'
p5
NsS'csproj'
p6
g4
sS'module_path_append'
p7
NsS'global_path'
p8
S'c:\\users\\ext.vicu\\desktop\\app\\app'
p9
sS'system_path'
p10
S'c:\\marmalade\\7.8\\s3e\\makefile_builder'
p11
sS'android_x86_dbg_args'
p12
S'../../tools/DeployTool/DeployTool.exe --dir "c:\\Users\\ext.vicu\\Desktop\\App\\app\\App\\build_app_vc12"'
p13
sS'aarch64-arch-mod'
p14
g4
sS'no-emit'
p15
NsS'arm-float-abi'
p16
g4
sS'arm_rel_rtsm_args'
p17
S'-via:"c:\\Users\\ext.vicu\\Desktop\\App\\app\\App\\build_app_vc12\\App_vc12_arm_release.via" -qemu'
p18
sS'amd64'
p19
NsS'line-width'
p20
I80
sS'gcc_dbg_args'
p21
S'-via:"c:\\Users\\ext.vicu\\Desktop\\App\\app\\App\\build_app_vc12\\App_vc12_gcc_debug.via" -qemu'
p22
sS'sim-release-loader'
p23
NsS'android-x86'
p24
NsS'x86_dbg_exe'
p25
S'c:/marmalade/7.8/s3e\\win32\\s3e_simulator_debug.exe'
p26
sS'jflags'
p27
NsS'nacl_x86_64_rel_args'
p28
g13
sS'release'
p29
NsS'no-make'
p30
NsS'xcode-x86-build-settings'
p31
g4
sS'optimise-size'
p32
NsS'fat'
p33
NsS'output-name-debug'
p34
g4
sS'arm-fpu'
p35
g4
sS'proj_name'
p36
S'App_vc12'
p37
sS'rvct-version'
p38
S'none'
p39
sS'compiler'
p40
g4
sS'execute'
p41
NsS'compile-static'
p42
NsS'nacl_x86_64_rel_exe'
p43
S'c:\\marmalade\\7.8\\s3e\\makefile_builder\\tool_launcher.exe'
p44
sS'msvc-project'
p45
NsS'buildenv'
p46
S'VC12'
p47
sS'quick'
p48
NsS'module_path'
p49
NsS'mkf_default'
p50
S's3e-default.mkf'
p51
sS'use-release-std-libs'
p52
NsS'using_perforce'
p53
I00
sS'tizen-x86'
p54
NsS'mips-s3e'
p55
NsS's3e-api-lib-name'
p56
S's3e_api_iwgl'
p57
sS'ios-no-pic'
p58
NsS'shared-arm-lib'
p59
NsS'arm-cpu'
p60
g4
sS'compile-thumb'
p61
NsS'no-ide'
p62
NsS'msvc-version'
p63
S'6.0'
p64
sS'arm'
p65
NsS'nacl_x86_64_dbg_exe'
p66
g44
sS'builddir'
p67
g4
sS'compile-debug-as-release'
p68
I0
sS'arm-arch'
p69
g4
sS'brief'
p70
NsS'dll'
p71
NsS'buildenv-toolset'
p72
g4
sS'version'
p73
NsS'aarch64-arch'
p74
g4
sS'ccache'
p75
I0
sS'offline'
p76
NsS'ios-version'
p77
g4
sS'hub_data'
p78
g4
sS'fake_vc_call'
p79
I01
sS'jobs'
p80
I0
sS'linkflags'
p81
NsS'gcc_aarch64_dbg_args'
p82
g13
sS'nacl_x86_64_dbg_args'
p83
g13
sS'debug'
p84
NsS'xcode-build-order'
p85
g4
sS'gcc_aarch64_rel_rtsm_args'
p86
S'-via:"c:\\Users\\ext.vicu\\Desktop\\App\\app\\App\\build_app_vc12\\App_vc12_gcc_aarch64_release.via" -qemu'
p87
sS'gcc_rel_rtsm_args'
p88
S'-via:"c:\\Users\\ext.vicu\\Desktop\\App\\app\\App\\build_app_vc12\\App_vc12_gcc_release.via" -qemu'
p89
sS'done_defaults'
p90
I1
sS'path'
p91
(lp92
S'c:/marmalade/7.8/tools/gcc/x86_64/nacl_windows/toolchain/win_x86_glibc/bin'
p93
asS's3e-data-dir'
p94
S'c:/Users/ext.vicu/Desktop/App/app/App\\data'
p95
sS'enable-exceptions'
p96
NsS'osx-dll'
p97
NsS'extension'
p98
g4
sS'no-vc6'
p99
NsS'aarch64'
p100
NsS'win32-console'
p101
NsS'dist-format'
p102
g4
sS's3e-force-arch'
p103
NsS'dump_defines'
p104
NsS'use-shared-std-libs'
p105
NsS'gcc-version'
p106
g4
sS'x86_dbg_args'
p107
S'-via:"c:\\Users\\ext.vicu\\Desktop\\App\\app\\App\\build_app_vc12\\App_vc12_debug.via"'
p108
sS'nacl'
p109
NsS'tizen_x86_dbg_args'
p110
g13
sS'arm-debugger'
p111
g4
sS'use_temp_extension'
p112
NsS'verbose'
p113
I0
sS'log'
p114
NsS'no-strip'
p115
NsS'rebuild'
p116
NsS'mips_dbg_args'
p117
g13
sS'win32-simulator-dll'
p118
NsS'strict'
p119
NsS'xcode-aarch64-build-settings'
p120
g4
sS'enable-global-path'
p121
NsS'gcc_aarch64_rel_args'
p122
g13
sS'cflags'
p123
NsS'dist-dir'
p124
g4
sS'xcode-arm-build-settings'
p125
g4
sS'disable-runtime-checks'
p126
NsS'csprojSDKRefs'
p127
g4
sS'tizen_x86_rel_exe'
p128
g44
sS'test-assets'
p129
g4
sS'distcc'
p130
NsS'external-compiler'
p131
NsS'no-distcc'
p132
NsS'retry-build'
p133
S'0'
p134
sS'preinclude'
p135
NsS'using_sdk'
p136
I01
sS'nologo'
p137
NsS'warn-level'
p138
I2
sS'mips_dbg_exe'
p139
g44
sS'mkb_in'
p140
S'c:/Users/ext.vicu/Desktop/App/app/App/App.mkb'
p141
sS'no-objc-arc'
p142
NsS'tizen_x86_dbg_exe'
p143
g44
sS'arm_dbg_exe'
p144
S'c:/marmalade/7.8/s3e\\bin\\armdebug.exe'
p145
sS'mdev-first'
p146
NsS'csprojDLLRef'
p147
NsS'tizen_x86_rel_args'
p148
g13
sS'android_x86_dbg_exe'
p149
g44
sS'naclx86_64'
p150
NsS'test-config'
p151
g4
sS'list-targets'
p152
NsS'arm_rel_exe'
p153
g44
sS'arm_rel_args'
p154
g13
sS'makedeps'
p155
NsS'android_x86_rel_exe'
p156
g44
sS'default-buildenv'
p157
S'VC12'
p158
sS'x86_rel_exe'
p159
g26
sS'preprocess-java'
p160
NsS'mips_rel_args'
p161
g13
sS'defines'
p162
NsS'lib'
p163
NsS'non-interactive'
p164
NsS'global_argv'
p165
(lp166
S'C:\\Marmalade\\7.8\\s3e\\makefile_builder\\mkb.py'
p167
aS'C:/Users/ext.vicu/Desktop/App/app/App/App.mkb'
p168
aS'--buildenv=VC12'
p169
aS'--fake-vc-call'
p170
asS'make'
p171
NsS'optimise-speed'
p172
NsS'internal'
p173
NsS'enable-stdinc'
p174
NsS'deploy-only'
p175
NsS'x86'
p176
NsS'deploy'
p177
g4
sS'objc-arc'
p178
NsS'x86_run_exe'
p179
S'c:/marmalade/7.8/s3e\\win32\\s3e_simulator_debug.exe'
p180
sS'cxxflags'
p181
NsS'x86_rel_args'
p182
S'-via:"c:\\Users\\ext.vicu\\Desktop\\App\\app\\App\\build_app_vc12\\App_vc12_release.via"'
p183
sS'gcc_rel_args'
p184
g13
sS'mips'
p185
NsS'xcode-build-settings'
p186
g4
sS'incredibuild'
p187
NsS'strict-compile'
p188
NsS'use-auto-subdirs'
p189
NsS'mips_rel_exe'
p190
g44
sS'android_x86_rel_args'
p191
g13
sS'app-icf'
p192
g4
sS'deployargs'
p193
NsS'iosnativedebug'
p194
NsS'use_prebuilt'
p195
NsS'mkf_in'
p196
(lp197
S'c:\\marmalade\\7.8\\s3e\\s3e-default.mkf'
p198
aS'c:\\marmalade\\7.8\\extensions\\s3eamazonads\\s3eamazonads.mkf'
p199
aS'c:\\marmalade\\7.8\\modules\\iwutil\\iwutil.mkf'
p200
aS'c:\\marmalade\\7.8\\modules\\third_party\\libjpeg\\libjpeg.mkf'
p201
aS'c:\\marmalade\\7.8\\modules\\third_party\\libpng\\libpng.mkf'
p202
aS'c:\\marmalade\\7.8\\modules\\third_party\\zlib\\zlib.mkf'
p203
aS'c:\\marmalade\\7.8\\platform_libs\\android\\amazon-ads-android-sdk\\amazon-ads-android-sdk.mkf'
p204
aS'c:\\marmalade\\7.8\\platform_libs\\iphone\\amazon-ads-ios-sdk\\amazon-ads-ios-sdk.mkf'
p205
aS'c:\\marmalade\\7.8\\modules\\iw2dscenegraphcore\\iw2dscenegraphcore.mkf'
p206
aS'c:\\marmalade\\7.8\\modules\\iw2dscenegraph\\iw2dscenegraph.mkf'
p207
aS'c:\\marmalade\\7.8\\modules\\iw2d\\iw2d.mkf'
p208
aS'c:\\marmalade\\7.8\\modules\\iwgx\\iwgx.mkf'
p209
aS'c:\\marmalade\\7.8\\modules\\iwgl\\iwgl.mkf'
p210
aS'c:\\marmalade\\7.8\\modules\\iwgeom\\iwgeom.mkf'
p211
aS'c:\\marmalade\\7.8\\modules\\iwresmanager\\iwresmanager.mkf'
p212
aS'c:\\marmalade\\7.8\\extensions\\pvrtextool\\pvrtextool.mkf'
p213
aS'c:\\marmalade\\7.8\\modules\\iwgxfont\\iwgxfont.mkf'
p214
aS'c:\\marmalade\\7.8\\modules\\third_party\\tiniconv\\tiniconv.mkf'
p215
aS'c:\\marmalade\\7.8\\modules\\iwtween\\iwtween.mkf'
p216
asS'strict-mkb'
p217
NsS'executeargs'
p218
NsS'clean'
p219
NsS'no-asm'
p220
NsS'output-name'
p221
g4
sS'no-modules'
p222
NsS'find_define'
p223
g4
s(dp224
S'c:\\marmalade\\7.8\\s3e\\makefile_builder\\nacl.mkf'
p225
F1433986780.0
sS'c:\\marmalade\\7.8\\s3e\\makefile_builder\\docs'
p226
F1435846861.490802
sS'c:\\marmalade\\7.8\\s3e\\makefile_builder\\templates\\Info.plist'
p227
F1433986780.0
sS'c:\\marmalade\\7.8\\s3e\\makefile_builder\\templates\\ws8_csproj.pyc'
p228
F1433996176.0
sS'c:\\marmalade\\7.8\\s3e\\makefile_builder\\templates\\xcode4.xcscheme'
p229
F1433986780.0
sS'c:\\marmalade\\7.8\\s3e\\makefile_builder\\docs\\mkb.defines.txt'
p230
F1433986780.0
sS'c:\\marmalade\\7.8\\s3e\\makefile_builder\\templates\\xcode_pbxuser.py'
p231
F1433986780.0
sS'c:\\marmalade\\7.8\\s3e\\makefile_builder\\plugins\\vc6_utils.pyc'
p232
F1433996256.0
sS'c:\\marmalade\\7.8\\s3e\\makefile_builder\\plugins\\s3e_make.pyc'
p233
F1433995438.0
sS'c:\\marmalade\\7.8\\s3e\\makefile_builder\\templates\\ws8_ext_sln.pyc'
p234
F1433995538.0
sS'c:\\marmalade\\7.8\\s3e\\makefile_builder\\docs\\deprecated.options.txt'
p235
F1433986780.0
sS'c:\\marmalade\\7.8\\s3e\\makefile_builder\\plugins\\MakeEmitter.pyc'
p236
F1433995776.0
sS'c:\\marmalade\\7.8\\s3e\\makefile_builder\\plugins\\s3e_web.pyc'
p237
F1433995886.0
sS'c:\\marmalade\\7.8\\s3e\\makefile_builder\\templates\\ws8_ext_csproj.pyc'
p238
F1433995624.0
sS'c:\\marmalade\\7.8\\s3e\\makefile_builder\\plugins\\xcode4_schememanagement.py'
p239
F1433986780.0
sS'c:\\marmalade\\7.8\\s3e\\makefile_builder\\templates\\win8_sln.pyc'
p240
F1433995702.0
sS'c:\\marmalade\\7.8\\s3e\\makefile_builder\\plugins\\s3e_xcode.pyc'
p241
F1436796743.4755347
sS'c:\\marmalade\\7.8\\s3e\\makefile_builder\\plugins\\S3EEmitter.pyc'
p242
F1433996282.0
sS'c:\\marmalade\\7.8\\s3e\\makefile_builder\\templates\\gdb_start.txt'
p243
F1433986780.0
sS'c:\\marmalade\\7.8\\s3e\\makefile_builder\\templates\\ws81_vcxproj.pyc'
p244
F1433996176.0
sS'c:\\marmalade\\7.8\\s3e\\makefile_builder\\templates\\template.opt'
p245
F1433986780.0
sS'c:\\marmalade\\7.8\\s3e\\makefile_builder\\templates\\vc8_user.pyc'
p246
F1433995962.0
sS'c:\\marmalade\\7.8\\s3e\\makefile_builder\\templates\\xcode4_arm.xcscheme'
p247
F1433986780.0
sS'c:\\marmalade\\7.8\\s3e\\makefile_builder\\docs\\deployment_options.txt'
p248
F1433986780.0
sS'c:\\marmalade\\7.8\\s3e\\makefile_builder\\mkb_globals.pyc'
p249
F1433996320.0
sS'c:\\marmalade\\7.8\\s3e\\makefile_builder\\templates\\template.suo'
p250
F1433986780.0
sS'c:\\marmalade\\7.8\\s3e\\makefile_builder\\plugins\\s3e_qmake.py'
p251
F1433986780.0
sS'c:\\marmalade\\7.8\\s3e\\makefile_builder\\plugins\\SConsEmitter.pyc'
p252
F1433995690.0
sS'c:\\marmalade\\7.8\\s3e\\makefile_builder\\plugins\\xcode4_schememanagement.pyc'
p253
F1436796743.3345346
sS'c:\\marmalade\\7.8\\s3e\\makefile_builder\\plugins\\Win8Emitter.pyc'
p254
F1433995972.0
sS'c:\\marmalade\\7.8\\s3e\\makefile_builder\\plugins\\null.pyc'
p255
F1433995914.0
sS'c:\\marmalade\\7.8\\s3e\\makefile_builder\\templates\\ws8_csproj_user.pyc'
p256
F1433995498.0
sS'c:\\marmalade\\7.8\\s3e\\makefile_builder\\templates\\win8_vcxproj.pyc'
p257
F1433996320.0
sS'c:\\marmalade\\7.8\\s3e\\makefile_builder\\plugins\\s3e_wp81.pyc'
p258
F1433996216.0
sS'c:\\marmalade\\7.8\\s3e\\makefile_builder\\plugins\\ws8_ws8.pyc'
p259
F1433996320.0
sS'c:\\marmalade\\7.8\\s3e\\makefile_builder\\templates\\ws8_vcxproj.pyc'
p260
F1433996308.0
sS'c:\\marmalade\\7.8\\s3e\\makefile_builder\\plugins'
p261
F1436796743.4755347
sS'c:\\marmalade\\7.8\\s3e\\makefile_builder\\mkb_launcher.exe'
p262
F1433987744.0
sS'c:\\marmalade\\7.8\\s3e\\makefile_builder\\templates\\rvct_linker_script'
p263
F1433986780.0
sS'c:\\marmalade\\7.8\\s3e\\makefile_builder\\plugins\\osx_scons.pyc'
p264
F1433995628.0
sS'c:\\marmalade\\7.8\\s3e\\makefile_builder\\docs\\options.txt'
p265
F1433986780.0
sS'c:\\marmalade\\7.8\\s3e\\makefile_builder\\templates\\win32_dsp.pyc'
p266
F1433996292.0
sS'c:\\marmalade\\7.8\\s3e\\makefile_builder\\templates\\qmake_user.py'
p267
F1433986780.0
sS'c:\\marmalade\\7.8\\s3e\\makefile_builder\\plugins\\java.pyc'
p268
F1433995830.0
sS'c:\\marmalade\\7.8\\s3e\\makefile_builder\\templates\\win8_csproj_user.pyc'
p269
F1433995626.0
sS'c:\\marmalade\\7.8\\s3e\\makefile_builder\\templates\\linker_script'
p270
F1433986780.0
sS'c:\\marmalade\\7.8\\s3e\\makefile_builder\\plugins\\win8_utils.pyc'
p271
F1433996252.0
sS'c:\\marmalade\\7.8\\s3e\\makefile_builder\\tool_launcher.exe'
p272
F1433987744.0
sS'c:\\marmalade\\7.8\\s3e\\makefile_builder\\mkb_parser.pyc'
p273
F1433995732.0
sS'c:\\marmalade\\7.8\\s3e\\makefile_builder\\plugins\\XcodeEmitter.pyc'
p274
F1436796743.3275347
sS'c:\\marmalade\\7.8\\s3e\\makefile_builder\\mkb_main.pyc'
p275
F1433995866.0
sS'c:\\marmalade\\7.8\\s3e\\makefile_builder\\plugins\\s3e_wp8.pyc'
p276
F1433996224.0
sS'c:\\marmalade\\7.8\\s3e\\makefile_builder\\templates\\win32_dsw.pyc'
p277
F1433995444.0
sS'c:\\marmalade\\7.8\\s3e\\makefile_builder\\templates\\wp8_csproj_user.pyc'
p278
F1433996036.0
sS'c:\\marmalade\\7.8\\s3e\\makefile_builder\\plugins\\s3e_qmake.pyc'
p279
F1436796743.4255347
sS'c:\\marmalade\\7.8\\s3e\\makefile_builder\\templates\\win32_vcproj.pyc'
p280
F1433996210.0
sS'c:\\marmalade\\7.8\\s3e\\makefile_builder\\templates\\wp81_sln.pyc'
p281
F1433995882.0
sS'c:\\marmalade\\7.8\\s3e\\makefile_builder\\plugins\\s3e_win8.pyc'
p282
F1433995702.0
sS'c:\\marmalade\\7.8\\s3e\\makefile_builder\\templates\\wp81_ext_sln.pyc'
p283
F1433995710.0
sS'c:\\marmalade\\7.8\\s3e\\makefile_builder\\templates\\scons.pyc'
p284
F1433996314.0
sS'c:\\marmalade\\7.8\\s3e\\makefile_builder\\plugins\\ws81_ws81.pyc'
p285
F1433995890.0
sS'c:\\marmalade\\7.8\\s3e\\makefile_builder\\templates\\ws8_sln.pyc'
p286
F1433996252.0
sS'c:\\marmalade\\7.8\\s3e\\makefile_builder\\plugins\\linux_scons.pyc'
p287
F1433996320.0
sS'c:\\marmalade\\7.8\\s3e\\makefile_builder\\deployment.pyc'
p288
F1433996006.0
sS'c:\\marmalade\\7.8\\s3e\\makefile_builder\\templates\\win32_sln.pyc'
p289
F1433996320.0
sS'c:\\marmalade\\7.8\\s3e\\makefile_builder\\mkb_option.pyc'
p290
F1433995462.0
sS'c:\\marmalade\\7.8\\s3e\\makefile_builder\\templates\\wp81_csproj_user.pyc'
p291
F1433995866.0
sS'c:\\marmalade\\7.8\\s3e\\makefile_builder\\templates\\xcode.py'
p292
F1433986780.0
sS'c:\\marmalade\\7.8\\s3e\\makefile_builder\\templates\\ws81_csproj.pyc'
p293
F1433995690.0
sS'c:\\marmalade\\7.8\\s3e\\makefile_builder\\plugins\\s3e_xcode.py'
p294
F1433986780.0
sS'c:\\marmalade\\7.8\\s3e\\makefile_builder\\templates\\wp8_sln.pyc'
p295
F1433995626.0
sS'c:\\marmalade\\7.8\\s3e\\makefile_builder\\templates\\wp81_vcxproj.pyc'
p296
F1433995734.0
sS'c:\\marmalade\\7.8\\s3e\\makefile_builder\\plugins\\vc7_utils.pyc'
p297
F1433995766.0
sS'c:\\marmalade\\7.8\\s3e\\makefile_builder\\mkb.py'
p298
F1433986780.0
sS'c:\\marmalade\\7.8\\s3e\\makefile_builder\\plugins\\iphone.pyc'
p299
F1433996012.0
sS'c:\\marmalade\\7.8\\s3e\\makefile_builder\\mkb_util.pyc'
p300
F1433995748.0
sS'c:\\marmalade\\7.8\\s3e\\makefile_builder\\plugins\\deploy.pyc'
p301
F1433995872.0
sS'c:\\marmalade\\7.8\\s3e\\makefile_builder\\templates\\aarch64_linker_script'
p302
F1433986780.0
sS'c:\\marmalade\\7.8\\s3e\\makefile_builder\\plugins\\osx_xcode.pyc'
p303
F1433995568.0
sS'c:\\marmalade\\7.8\\s3e\\makefile_builder\\docs\\parse_options.pyc'
p304
F1433996292.0
sS'c:\\marmalade\\7.8\\s3e\\makefile_builder\\templates\\MainWindow.xib'
p305
F1433986780.0
sS'c:\\marmalade\\7.8\\s3e\\makefile_builder\\templates\\win8_ext_csproj.pyc'
p306
F1433995774.0
sS'c:\\marmalade\\7.8\\s3e\\makefile_builder\\templates\\wp81_csproj.pyc'
p307
F1433995810.0
sS'c:\\marmalade\\7.8\\s3e\\makefile_builder\\templates\\win8_csproj.pyc'
p308
F1433996352.0
sS'c:\\marmalade\\7.8\\s3e\\makefile_builder\\templates\\ws81_csproj_user.pyc'
p309
F1433996282.0
sS'c:\\marmalade\\7.8\\s3e\\makefile_builder\\templates\\ws81_ext_sln.pyc'
p310
F1433995658.0
sS'c:\\marmalade\\7.8\\s3e\\makefile_builder\\plugins\\XcodeEmitter.py'
p311
F1433986780.0
sS'c:\\marmalade\\7.8\\s3e\\makefile_builder\\templates\\vc6_opt.pyc'
p312
F1433996264.0
sS'c:\\marmalade\\7.8\\s3e\\makefile_builder\\templates\\ws81_ext_csproj.pyc'
p313
F1433996144.0
sS'c:\\marmalade\\7.8\\s3e\\makefile_builder\\templates\\wp8_vcxproj.pyc'
p314
F1433995812.0
sS'c:\\marmalade\\7.8\\s3e\\makefile_builder\\templates\\wp8_csproj.pyc'
p315
F1433996294.0
sS'c:\\marmalade\\7.8\\s3e\\makefile_builder\\templates\\mips_linker_script'
p316
F1433986780.0
sS'c:\\marmalade\\7.8\\s3e\\makefile_builder\\templates\\win32_vcxproj_filters.pyc'
p317
F1433995626.0
sS'c:\\marmalade\\7.8\\s3e\\makefile_builder\\plugins\\s3e_ws8.pyc'
p318
F1433996272.0
sS'c:\\marmalade\\7.8\\s3e\\makefile_builder\\templates\\wp81_ext_csproj.pyc'
p319
F1433996264.0
sS'c:\\marmalade\\7.8\\s3e\\makefile_builder\\plugins\\s3e_scons.pyc'
p320
F1433995942.0
sS'c:\\marmalade\\7.8\\s3e\\makefile_builder\\plugins\\wp8_wp8.pyc'
p321
F1433995962.0
sS'c:\\marmalade\\7.8\\s3e\\makefile_builder\\templates\\wp8_ext_csproj.pyc'
p322
F1433996336.0
sS'c:\\marmalade\\7.8\\s3e\\makefile_builder\\templates\\win32_vcxproj.pyc'
p323
F1433996256.0
sS'c:\\marmalade\\7.8\\s3e\\makefile_builder\\plugins\\wp81_wp81.pyc'
p324
F1433995472.0
sS'c:\\marmalade\\7.8\\s3e\\makefile_builder\\templates\\qmake.py'
p325
F1433986780.0
sS'c:\\marmalade\\7.8\\s3e\\makefile_builder\\plugins\\win32_vc6.pyc'
p326
F1433995664.0
sS'c:\\marmalade\\7.8\\s3e\\makefile_builder\\docs\\deprecated.defines.txt'
p327
F1433986780.0
sS'c:\\marmalade\\7.8\\s3e\\makefile_builder\\templates\\vc10_user.pyc'
p328
F1433996206.0
sS'c:\\marmalade\\7.8\\s3e\\makefile_builder\\templates'
p329
F1435846863.400993
sS'c:\\marmalade\\7.8\\s3e\\makefile_builder\\plugins\\s3e_ws81.pyc'
p330
F1433996282.0
sS'c:\\marmalade\\7.8\\s3e\\makefile_builder\\templates\\ws81_sln.pyc'
p331
F1433996252.0
sS'c:\\marmalade\\7.8\\s3e\\makefile_builder\\mkb_upstream.pyc'
p332
F1433995942.0
sS'c:\\marmalade\\7.8\\s3e\\makefile_builder\\templates\\xcode4_DeployTool.xcscheme'
p333
F1433986780.0
sS'c:\\marmalade\\7.8\\s3e\\makefile_builder\\plugins\\s3e_vc6.pyc'
p334
F1433995622.0
sS'c:\\marmalade\\7.8\\s3e\\makefile_builder\\templates\\make.py'
p335
F1433986780.0
sS'c:\\marmalade\\7.8\\s3e\\makefile_builder\\templates\\vc7_suo.pyc'
p336
F1433996216.0
sS'c:\\marmalade\\7.8\\s3e\\makefile_builder\\plugins\\Emitter.pyc'
p337
F1433995862.0
sS'c:\\marmalade\\7.8\\s3e\\makefile_builder\\plugins\\VisualStudioEmitter.pyc'
p338
F1433995812.0
sccopy_reg
_reconstructor
p339
(cmkb_main
MkbFile
p340
c__builtin__
object
p341
Ntp342
Rp343
(dp344
g5
(lp345
sS'target_name'
p346
S'App'
p347
sS'current_file'
p348
g141
sS'package_path'
p349
(lp350
sS'post_build'
p351
(lp352
(lp353
S'c:/marmalade/7.8/s3e/tools'
p354
aS'C:\\Marmalade\\7.8\\s3e\\python\\python.exe .\\process_map.py "$(TargetPath)"'
p355
aa(S'c:\\marmalade\\7.8\\s3e\\bin'
p356
S'"s3e_plink" -l "$(TargetPath)" '
p357
g176
tp358
asS'librarys'
p359
(lp360
g339
(cmkb_main
Library
p361
g341
Ntp362
Rp363
(dp364
S'name'
p365
S'vc6_compat.lib'
p366
sS'expand_name'
p367
I00
sS'include_spec_rvct_objs'
p368
(lp369
sS'include_all_objs'
p370
I00
sS'share_arm'
p371
I00
sS'arch'
p372
S'x86'
p373
sS'nodebug'
p374
I00
sg40
Nsbag339
(g361
g341
Ntp375
Rp376
(dp377
g365
S'iwutil'
p378
sg367
I01
sg368
(lp379
sg370
Nsg371
Nsg372
Nsg374
I00
sg40
Nsbag339
(g361
g341
Ntp380
Rp381
(dp382
g365
S'jpeg'
p383
sg367
I01
sg368
g379
sg370
Nsg371
Nsg372
Nsg374
I00
sg40
Nsbag339
(g361
g341
Ntp384
Rp385
(dp386
g365
S'z'
p387
sg367
I01
sg368
g379
sg370
Nsg371
Nsg372
Nsg374
I00
sg40
Nsbag339
(g361
g341
Ntp388
Rp389
(dp390
g365
S'png'
p391
sg367
I01
sg368
g379
sg370
Nsg371
Nsg372
Nsg374
I00
sg40
Nsbag339
(g361
g341
Ntp392
Rp393
(dp394
g365
S'iw2d'
p395
sg367
I01
sg368
g379
sg370
Nsg371
Nsg372
Nsg374
I00
sg40
Nsbag339
(g361
g341
Ntp396
Rp397
(dp398
g365
S'ATI_Compress_MT_VC7.lib'
p399
sg367
I00
sg368
g379
sg370
Nsg371
Nsg372
S'x86'
p400
sg374
I00
sg40
Nsbag339
(g361
g341
Ntp401
Rp402
(dp403
g365
S'iwgx'
p404
sg367
I01
sg368
g379
sg370
Nsg371
Nsg372
Nsg374
I00
sg40
Nsbag339
(g361
g341
Ntp405
Rp406
(dp407
g365
S'iwgl'
p408
sg367
I01
sg368
g379
sg370
Nsg371
Nsg372
Nsg374
I00
sg40
Nsbag339
(g361
g341
Ntp409
Rp410
(dp411
g365
S'iwgeom'
p412
sg367
I01
sg368
g379
sg370
Nsg371
Nsg372
Nsg374
I00
sg40
Nsbag339
(g361
g341
Ntp413
Rp414
(dp415
g365
S'iwresmanager'
p416
sg367
I01
sg368
g379
sg370
Nsg371
Nsg372
Nsg374
I00
sg40
Nsbag339
(g361
g341
Ntp417
Rp418
(dp419
g365
S'iwgxfont'
p420
sg367
I01
sg368
g379
sg370
Nsg371
Nsg372
Nsg374
I00
sg40
Nsbag339
(g361
g341
Ntp421
Rp422
(dp423
g365
S'tiniconv'
p424
sg367
I01
sg368
g379
sg370
Nsg371
Nsg372
Nsg374
I00
sg40
Nsbag339
(g361
g341
Ntp425
Rp426
(dp427
g365
S's3e_cpp'
p428
sg367
I01
sg368
g369
sg370
I00
sg371
I00
sg372
Nsg374
I00
sg40
Nsbag339
(g361
g341
Ntp429
Rp430
(dp431
g365
S's3e_vc12'
p432
sg367
I01
sg368
(lp433
S'iwcrt.o'
p434
asg370
I00
sg371
I00
sg372
S'x86'
p435
sg374
I00
sg40
Nsbag339
(g361
g341
Ntp436
Rp437
(dp438
g365
S's3e'
p439
sg367
I01
sg368
(lp440
g434
asg370
I00
sg371
I00
sg372
S'!x86'
p441
sg374
I00
sg40
Nsbag339
(g361
g341
Ntp442
Rp443
(dp444
g365
g57
sg367
I01
sg368
g369
sg370
I00
sg371
I00
sg372
S'x86'
p445
sg374
I01
sg40
Nsbag339
(g361
g341
Ntp446
Rp447
(dp448
g365
g57
sg367
I01
sg368
g369
sg370
I00
sg371
I00
sg372
S'!x86'
p449
sg374
I01
sg40
Nsbag339
(g361
g341
Ntp450
Rp451
(dp452
g365
S'stdc++'
p453
sg367
I00
sg368
g369
sg370
I00
sg371
I00
sg372
S'mips'
p454
sg374
I00
sg40
Nsbag339
(g361
g341
Ntp455
Rp456
(dp457
g365
S'c'
p458
sg367
I00
sg368
g369
sg370
I00
sg371
I00
sg372
S'mips'
p459
sg374
I00
sg40
Nsbag339
(g361
g341
Ntp460
Rp461
(dp462
g365
S'm'
p463
sg367
I00
sg368
g369
sg370
I00
sg371
I00
sg372
S'mips'
p464
sg374
I00
sg40
Nsbag339
(g361
g341
Ntp465
Rp466
(dp467
g365
S'gcc'
p468
sg367
I00
sg368
g369
sg370
I00
sg371
I00
sg372
S'mips'
p469
sg374
I00
sg40
Nsbag339
(g361
g341
Ntp470
Rp471
(dp472
g365
g468
sg367
I00
sg368
g369
sg370
I00
sg371
I00
sg372
S'naclx86_64'
p473
sg374
I00
sg40
Nsbag339
(g361
g341
Ntp474
Rp475
(dp476
g365
S'gcc_eh'
p477
sg367
I00
sg368
g369
sg370
I00
sg371
I00
sg372
S'naclx86_64'
p478
sg374
I00
sg40
Nsbag339
(g361
g341
Ntp479
Rp480
(dp481
g365
g458
sg367
I00
sg368
g369
sg370
I00
sg371
I00
sg372
S'naclx86_64'
p482
sg374
I00
sg40
Nsbag339
(g361
g341
Ntp483
Rp484
(dp485
g365
g463
sg367
I00
sg368
g369
sg370
I00
sg371
I00
sg372
S'naclx86_64'
p486
sg374
I00
sg40
Nsbag339
(g361
g341
Ntp487
Rp488
(dp489
g365
S'supc++'
p490
sg367
I00
sg368
g369
sg370
I00
sg371
I00
sg372
S'naclx86_64'
p491
sg374
I00
sg40
Nsbag339
(g361
g341
Ntp492
Rp493
(dp494
g365
S'supc++'
p495
sg367
I00
sg368
g369
sg370
I00
sg371
I00
sg372
S'gcc_x86_android'
p496
sg374
I00
sg40
Nsbag339
(g361
g341
Ntp497
Rp498
(dp499
g365
g458
sg367
I00
sg368
g369
sg370
I00
sg371
I00
sg372
S'gcc_x86_android'
p500
sg374
I00
sg40
Nsbag339
(g361
g341
Ntp501
Rp502
(dp503
g365
g463
sg367
I00
sg368
g369
sg370
I00
sg371
I00
sg372
S'gcc_x86_android'
p504
sg374
I00
sg40
Nsbag339
(g361
g341
Ntp505
Rp506
(dp507
g365
g468
sg367
I00
sg368
g369
sg370
I00
sg371
I00
sg372
S'gcc_x86_android'
p508
sg374
I00
sg40
Nsbag339
(g361
g341
Ntp509
Rp510
(dp511
g365
S'dl'
p512
sg367
I00
sg368
g369
sg370
I00
sg371
I00
sg372
S'gcc_x86_android'
p513
sg374
I00
sg40
NsbasS'library_paths'
p514
(lp515
g339
(cmkb_main
LibraryPath
p516
g341
Ntp517
Rp518
(dp519
S'expand_path'
p520
I01
sg365
S'c:/marmalade/7.8/modules/iwutil'
p521
sbag339
(g516
g341
Ntp522
Rp523
(dp524
g520
I01
sg365
S'c:/marmalade/7.8/modules/third_party/libjpeg'
p525
sbag339
(g516
g341
Ntp526
Rp527
(dp528
g520
I01
sg365
S'c:/marmalade/7.8/modules/third_party/zlib'
p529
sbag339
(g516
g341
Ntp530
Rp531
(dp532
g520
I01
sg365
S'c:/marmalade/7.8/modules/third_party/libpng'
p533
sbag339
(g516
g341
Ntp534
Rp535
(dp536
g520
I01
sg365
S'c:/marmalade/7.8/modules/iw2d'
p537
sbag339
(g516
g341
Ntp538
Rp539
(dp540
g520
I00
sg365
S'c:/marmalade/7.8/modules/iwgx/atitools'
p541
sbag339
(g516
g341
Ntp542
Rp543
(dp544
g520
I01
sg365
S'c:/marmalade/7.8/modules/iwgx'
p545
sbag339
(g516
g341
Ntp546
Rp547
(dp548
g520
I01
sg365
S'c:/marmalade/7.8/modules/iwgl'
p549
sbag339
(g516
g341
Ntp550
Rp551
(dp552
g520
I01
sg365
S'c:/marmalade/7.8/modules/iwgeom'
p553
sbag339
(g516
g341
Ntp554
Rp555
(dp556
g520
I01
sg365
S'c:/marmalade/7.8/modules/iwresmanager'
p557
sbag339
(g516
g341
Ntp558
Rp559
(dp560
g520
I01
sg365
S'c:/marmalade/7.8/modules/iwgxfont'
p561
sbag339
(g516
g341
Ntp562
Rp563
(dp564
g520
I01
sg365
S'c:/marmalade/7.8/modules/third_party/tiniconv'
p565
sbag339
(g516
g341
Ntp566
Rp567
(dp568
g520
I01
sg365
S'c:/marmalade/7.8/s3e'
p569
sbasS'macros'
p570
(dp571
S'IW_TRACE_CHANNEL_AMAZONADS'
p572
S'1'
p573
sS'IW_USE_CALLSTACK'
p574
NsS'IW_PLATFORM_S3E'
p575
NsS'I3D_PLATFORM_S3E'
p576
NsS'IW_MKF_IW2DSCENEGRAPHCORE'
p577
NsS'IW_TRACE_CHANNEL_AMAZONADS_VERBOSE'
p578
S'2'
p579
sS'IW_MKF_LIBJPEG'
p580
NsS'I3D_OS_S3E'
p581
NsS'IW_MKF_PVRTEXTOOL'
p582
NsS'IW_MKF_AMAZON_ADS_IOS_SDK'
p583
NsS'IW_MKF_TINICONV'
p584
NsS'IW_APP_VERSION'
p585
S'"1.0"'
p586
sS'__S3E__'
p587
NsS'IW_MKF_IWRESMANAGER'
p588
NsS'IW_MKF_FREELICENSE'
p589
NsS'IW_MKF_S3EAMAZONADS'
p590
NsS'IW_MKF_IWUTIL'
p591
NsS'IW_SDK'
p592
NsS'IW_MKF_AMAZON_ADS_ANDROID_SDK'
p593
NsS'IW_ASSERTION_CHANNEL_2D'
p594
g573
sS'IW_APP_NAME'
p595
S'"App"'
p596
sS'IW_MKF_S3E_DEFAULT'
p597
NsS'IW_MKF_IWGXFONT'
p598
NsS'IW_MKF_IWTWEEN'
p599
NsS'IW_MKF_ZLIB'
p600
NsS'IW_MKF_IWGX'
p601
NsS'IW_MKF_IW2DSCENEGRAPH'
p602
NsS'IW_ASSERTION_CHANNEL_AMAZONADS'
p603
g573
sS'IW_USE_ASSERTIONS'
p604
NsS'_CRT_SECURE_NO_DEPRECATE'
p605
NsS'IW_MKF_IWGL'
p606
NsS'IW_MKF_LIBPNG'
p607
NsS'IW_TRACE_CHANNEL_IW_2DSCENEGRAPH'
p608
g573
sS'IW_DEBUG'
p609
NsS'IW_USE_TRACING'
p610
NsS'IW_ASSERTION_CHANNEL_IW_2DSCENEGRAPH'
p611
g573
sS'IW_TRACE_CHANNEL_PVRTEXTOOL'
p612
g573
sS'S3E_INCLUDE_LEGACY'
p613
NsS'IW_TRACE_CHANNEL_PVRTEXTOOL_VERBOSE'
p614
g579
sS'IW_MKF_IW2D'
p615
NsS'IW_MKF_IWGEOM'
p616
NsS'IW_ASSERTION_CHANNEL_PVRTEXTOOL'
p617
g573
ssS'done_warnings'
p618
(dp619
sS'subprojects'
p620
(dp621
g206
S'iw2dscenegraphcore'
p622
sg215
S'tiniconv'
p623
sg203
S'zlib'
p624
sg200
S'iwutil'
p625
sg214
S'iwgxfont'
p626
sg212
S'iwresmanager'
p627
sg202
S'libpng'
p628
sg199
S's3eAmazonAds'
p629
sg213
S'PVRTexTool'
p630
sg210
S'iwgl'
p631
sg205
S'amazon-ads-ios-sdk'
p632
sg201
S'libjpeg'
p633
sg198
S's3e-default.mkf'
p634
sg208
S'iw2d'
p635
sg211
S'iwgeom'
p636
sg209
S'iwgx'
p637
sg207
S'iw2dscenegraph'
p638
sg204
S'amazon-ads-android-sdk'
p639
sg216
S'iwtween'
p640
ssS'deployments'
p641
(dp642
S'Default'
p643
g339
(cdeployment
Deployment
p644
g341
Ntp645
Rp646
(dp647
S'got_version'
p648
I0
sS'assets'
p649
g643
sS'mkb'
p650
g343
sS'target'
p651
Nsg372
(lp652
sS'options'
p653
(dp654
S'iphone-link-lib'
p655
(lp656
S's3eAmazonAds'
p657
asS'game-icf'
p658
NsS'android-tm'
p659
NsS'winmobile-icon32'
p660
NsS'ws8-logo-image150x150'
p661
NsS'wp81-logo-image150x150'
p662
NsS'android-keystore'
p663
NsS'osx-ext-dll'
p664
(lp665
S'c:/marmalade/7.8/extensions/pvrtextool/lib/osx/libPVRTexTool.dylib'
p666
asS'iphone-provisioning-profile'
p667
NsS'ws8-splash-screen-image620x300'
p668
NsS'wp81-extra-pri'
p669
(lp670
sS'ws8-ext-capabilities'
p671
(lp672
sS'android-icon-hdpi'
p673
NsS'iphone-ipad-only'
p674
NsS'iphone-splash-full-orient'
p675
NsS'wp8-tile-fliptemplate-supports-large'
p676
NsS'iphone-show-status-bar'
p677
NsS'roku-requires-mkv'
p678
NsS'long-caption'
p679
NsS'android-pkgname'
p680
NsS'ws8-ext-native-only-dll'
p681
(lp682
sS'wp81-publisher-display-name'
p683
NsS'blackberry-permissions-read-device-identifying-information'
p684
NsS'ws81-certificate-end-date'
p685
NsS'psp-dlgcontentid'
p686
NsS'iphone-minimum-ios-version'
p687
NsS'target-folder'
p688
NsS'tizen-dist1-CA-path'
p689
NsS'symbian-icon2-format'
p690
NsS'tizen-author-key'
p691
NsS'firefoxos-icon-128X128'
p692
NsS'iphone-region'
p693
NsS'uiq3-icon3-mask'
p694
NsS'brew-encoding'
p695
NsS'android-x86'
p696
NsS'nds-initialcode'
p697
NsS'iphone-persistent-wifi'
p698
NsS'psp-snd0'
p699
NsS'roku-icon-focus-hd'
p700
NsS'osx-appid'
p701
NsS'ws81-ext-native-only-dll'
p702
(lp703
sS'winmobile-install-folder'
p704
NsS'android-external-res'
p705
(lp706
sS'ws8-product-version'
p707
NsS'brew-priviledges'
p708
NsS'iphone-info-plist-override'
p709
NsS'iphone-icon-ipad'
p710
NsS'iphone-skip-icon-generation'
p711
NsS'nacl-icon-128X128'
p712
NsS'roku-hidden'
p713
NsS'psp-titlename'
p714
NsS'wp81-product-version'
p715
NsS'symbian-icon1-mask'
p716
NsS'psp-parentallevel'
p717
NsS'iphone-launch-storyboard'
p718
NsS'splashscreen-use-all'
p719
NsS'wp8-author'
p720
NsS'symbian-disable-ecompxl'
p721
NsS'splashscreen-auto-onblack'
p722
NsS'iphone-icon-dir'
p723
NsS'iphone-icon-extra'
p724
NsS'win32-ext-dll'
p725
(lp726
S'c:/marmalade/7.8/extensions/pvrtextool/lib/win32/PVRTexTool.dll'
p727
asS'iphone-development-key'
p728
NsS'winmobile-icon48'
p729
NsS'android-unsigned'
p730
NsS'osx-appstore-category'
p731
NsS'version-revision'
p732
NsS'roku-icon-focus-sd'
p733
NsS'ws81-product-version'
p734
NsS'winmobile-png90'
p735
NsS'iphone-icon-ipad-high-res'
p736
NsS'iphone-disable-ipad'
p737
NsS'ws81-splash-screen-background'
p738
NsS'wp8-ext-capabilities'
p739
(lp740
sS'brew-icon-large'
p741
NsS'symbian-icon1-mask-black'
p742
NsS'ws8-extra-res'
p743
(lp744
sS'iphone-bundle-localisations'
p745
NsS'winmobile-png60'
p746
NsS'blackberry-permissions-access-shared'
p747
NsS'blackberry-author'
p748
NsS'android-icon-xxxhdpi'
p749
NsS'olddeploytoolstyle'
p750
NsS'android_icon_gallery'
p751
NsS'wp81-splash-screen-background'
p752
NsS'winmobile-cab-compress'
p753
NsS'iphone-info-plist'
p754
NsS'ws81-ext-managed-dll'
p755
(lp756
sS'playbook-cskpass'
p757
NsS'win32-icon'
p758
NsS'symbian-key'
p759
NsS'app-icf'
p760
NsS'blackberry-storepass'
p761
NsS'wp8-tile-fliptemplate-back-title'
p762
NsS'brew-compress-loader'
p763
NsS'iphone-testflight'
p764
NsS'win32-pref-windowposy'
p765
NsS'win32-pref-windowposx'
p766
NsS'roku-requires-audiometadata'
p767
NsS'wp8-exclude-low-mem'
p768
NsS'android-min-sdk-version'
p769
NsS'wp8-tile-fliptemplate-title'
p770
NsS'iphone-icon-ipad-search-high-res'
p771
NsS'iphone-link-libdir'
p772
(lp773
S'c:/marmalade/7.8/extensions/s3eamazonads/lib/iphone'
p774
asS'wp81-ext-capabilities'
p775
(lp776
sS'blackberry-permissions-read-geolocation'
p777
NsS'ws81-ext-device-capabilities'
p778
(lp779
sS'tizen-signed'
p780
NsS'android-extra-application-manifest'
p781
(lp782
S'c:/marmalade/7.8/extensions/s3eamazonads/source/android/ExtraAppManifests.xml'
p783
asS'ws8-ext-native-dll'
p784
(lp785
sS'symbian-icon2-mask'
p786
NsS'iphone-launch-extra'
p787
NsS'webos-memory'
p788
NsS'android-keypass'
p789
NsS'name'
p790
NsS'uiq3-icon2-format'
p791
NsS'roku-splash-screen-sd'
p792
NsS'auto-derbh'
p793
NsS'roku-icon-side-sd'
p794
NsS'android-external-assets'
p795
(lp796
sS'nds-publicsavedatasize'
p797
NsS'splashscreen'
p798
NsS'brew-mif'
p799
NsS'iphone-icon-settings-high-res'
p800
NsS'android-manifest'
p801
NsS'ws81-splash-screen-image620x300'
p802
NsS'wp81-product-name'
p803
NsS's3e-compression'
p804
NsS'tizen-author-password'
p805
NsS'wp8-tile-fliptemplate-back-content'
p806
NsS'blackberry-extra-descriptor'
p807
(lp808
sS'android-java-source-version'
p809
NsS'symbian-icon1'
p810
NsS'symbian-icon2'
p811
NsS'nds-makercode'
p812
NsS'android-extra-styles-file'
p813
NsS'android-ext-target-sdk-version'
p814
(lp815
I17
asS'wp81-publisher-id'
p816
NsS'nds-bannertitle-jp'
p817
NsS'wp81-logo-image44x44'
p818
NsS'osx-sign-for-store'
p819
NsS'symbian7-uid'
p820
NsS'wp8-tile-fliptemplate-large-back-content'
p821
NsS'wp81-phone-publisher-id'
p822
NsS'nds-bannertitle-cn'
p823
NsS'iphone-distribution-key'
p824
NsS'android-icon-gallery'
p825
NsS'blackberry-keystore'
p826
NsS'iphone-nosign'
p827
NsS'caption'
p828
NsS'nacl-permissions'
p829
NsS'android-extra-manifest'
p830
(lp831
sS'wp81-ext-sdk-ref'
p832
(lp833
sS'android-icon-xxhdpi'
p834
NsS'version-minor'
p835
NsS'iphone-skip-launch-generation'
p836
NsS'iphone-link-libdirs'
p837
(lp838
sS'iphone-icon-large'
p839
NsS'symbian-keypwd'
p840
NsS'symbian8-uid'
p841
NsS'symbian-cert-key'
p842
NsS'winmobile-ampd-part-number'
p843
NsS'arch'
p844
NsS'nds-romheadertemplate'
p845
NsS'webos-icon'
p846
NsS'wp81-ext-device-capabilities'
p847
(lp848
sS'psp-dlgprotectdocument'
p849
NsS'ws8-splash-screen-background'
p850
NsS'android-icon-mdpi'
p851
NsS'android-sdk-build-tools-version'
p852
NsS'nds-icon'
p853
NsS'ws8-custom-manifest-fill'
p854
NsS'iphone-development-cert'
p855
NsS'symbian-icon2-mask-black'
p856
NsS'blackberry-phone-icon'
p857
NsS'iphone-enable-4inch-retina'
p858
NsS'ws8-custom-manifest'
p859
NsS'version-major'
p860
NsS'wp8-genre-isgame'
p861
NsS'uiq3-uid'
p862
NsS'iphone-splash-retina-generate'
p863
NsS'tizen-hw-acceleration'
p864
NsS'iphone_bundle_localisations'
p865
NsS'tizen-dist1-key'
p866
NsS'wp81-custom-manifest-fill'
p867
NsS'wp8-custom-manifest'
p868
NsS'nds-bannertitle-ge'
p869
NsS'iphone-sign-for-distribution'
p870
NsS'wp8-tile-fliptemplate-medium-back-image'
p871
NsS'wp8-publisher-id'
p872
NsS'icon'
p873
NsS'android-target-sdk-version'
p874
NsS'wp8-exclude-wxga'
p875
NsS'wp81-identity-name'
p876
NsS'uiq3-icon2-mask'
p877
NsS'iphone-splashscreen-portrait'
p878
NsS'iphone-icon-high-res'
p879
NsS'ws81-distribution-pfx-password'
p880
NsS'playbook-author'
p881
NsS'android-icon-xhdpi'
p882
NsS'linux-ext-lib'
p883
(lp884
sS'blackberry-permissions-access-internet'
p885
NsS'wp8-exclude-720p'
p886
NsS'lgtv-use-drm'
p887
NsS'symbian-platsecflags'
p888
NsS'ws8-description'
p889
NsS'blackberry-playbook-icon'
p890
NsS'copyright'
p891
NsS'ws8-distribution-pfx-password'
p892
NsS'win32-gles-directory'
p893
NsS'version'
p894
NsS'android-ext-min-sdk-version'
p895
(lp896
I4
asS'iphone-uiviewcontroller-based-status-bar'
p897
NsS'ws81-logo-image150x150'
p898
NsS'osx-signing-identity-app'
p899
NsS'tizen-project-url'
p900
NsS'symbian-icon-svg'
p901
NsS'android-aliasname'
p902
NsS'psp-dlgmanual'
p903
NsS'brew-uid'
p904
NsS'wp81-ext-native-only-dll'
p905
(lp906
sS'symbian-locationsupport'
p907
NsS'wp81-logo-image50x50'
p908
NsS'ws8-ext-managed-dll'
p909
(lp910
sS'nds-bannertitle-it'
p911
NsS'ws81-custom-manifest-fill'
p912
NsS'ws8-ext-sdk-manifest-part'
p913
(lp914
sS'uiq3-icon1-mask'
p915
NsS'winmobile-icon16'
p916
NsS'ws8-product-name'
p917
NsS'blackberry-cskpass'
p918
NsS'winmobile-start-menu-folder'
p919
NsS'brew-clsid'
p920
NsS'roku-requires-bluetooth'
p921
NsS'iphone-default-development-profile'
p922
NsS'ws8-ext-device-capabilities'
p923
(lp924
sS'blackberry-permissions-use-camera'
p925
NsS'ws81-extra-pri'
p926
(lp927
sS'iphone-prerendered-icon'
p928
NsS'iphone-appid'
p929
NsS'ws8-identity-name'
p930
NsS'tizen-dist2-CA-path'
p931
NsS'android-external-jars'
p932
(lp933
S'c:/marmalade/7.8/platform_libs/android/amazon-ads-android-sdk/third_party/lib/amazon-ads-5.4.235.jar'
p934
aS'c:/marmalade/7.8/extensions/s3eamazonads/lib/android/s3eAmazonAds.jar'
p935
asS'winmobile-icon64'
p936
NsS'blackberry-permissions-post-notification'
p937
NsS'winmobile-setup-dll'
p938
NsS'firefoxos-manifest'
p939
NsS'win8-winrt-extra-res'
p940
(lp941
sS'wp81-ext-sdk-manifest-part'
p942
(lp943
sS'symbian9-uid'
p944
NsS'iphone-icon-ipad-ios7'
p945
NsS'winmobile-trace-file'
p946
NsS'roku-splash-color'
p947
NsS'psp-appversion'
p948
NsS'android-java-target-version'
p949
NsS'ws8-publisher-id'
p950
NsS'android-supports-gl-texture'
p951
(lp952
sS'winmobile-png45'
p953
NsS'wp81-extra-res'
p954
(lp955
sS'android-storepass'
p956
NsS'nacl-icon-16X16'
p957
NsS'osx-signing-identity-inst'
p958
NsS'android-custom-activity'
p959
NsS'psp-discversion'
p960
NsS'wp81-ext-managed-dll'
p961
(lp962
sS'nacl-clear-user-data'
p963
NsS'psp-copyright'
p964
NsS'embed-icf'
p965
NsS'tizen-manifest'
p966
NsS'osx-icon'
p967
NsS'webos-appinfo'
p968
NsS'psp-dlghealthwarning'
p969
NsS'webos-appid'
p970
NsS'roku-icon-side-hd'
p971
NsS'iphone-icon-ipad-search-high-res-ios7'
p972
NsS'iphone-extra-plist'
p973
(lp974
sS'ws81-ext-sdk-manifest-part'
p975
(lp976
sS'loader_name_prefix'
p977
NsS'iphone-launch-dir'
p978
NsS'nds-titlename'
p979
NsS'ws81-logo-image50x50'
p980
NsS'wp81-custom-manifest'
p981
NsS'osx-entitlements-plist'
p982
NsS'psp-dlgicon0'
p983
NsS'winmobile-nouninstall'
p984
NsS'psp-discid'
p985
NsS'tizen-dist2-password'
p986
NsS'nacl-legacy-ext'
p987
NsS'ws8-ext-sdk-ref'
p988
(lp989
sS'iphone-extra-string'
p990
(lp991
sS'version-string'
p992
NsS'iphone-icon-high-res-ios7'
p993
NsS'ws8-certificate-end-date'
p994
NsS'nacl-skip-zip'
p995
NsS'tizen-so'
p996
(lp997
sS'wp8-tile-fliptemplate-small-image'
p998
NsS'playbook-authorid'
p999
NsS'iphone-signing-identity'
p1000
NsS'roku-persist-quota'
p1001
NsS'nds-bannertitle-fr'
p1002
NsS'ws8-distribution-pfx'
p1003
NsS'ws8-publisher-display-name'
p1004
NsS'brew-icon-small'
p1005
NsS'psp-dlgpic2'
p1006
NsS'psp-dlgpic0'
p1007
NsS'psp-pic0'
p1008
NsS'psp-pic1'
p1009
NsS'win32-pref-windowtitle'
p1010
NsS'psp-icon0'
p1011
NsS'psp-icon1'
p1012
NsS'ws81-identity-name'
p1013
NsS'winmobile-icon'
p1014
NsS'iphone-no-splash'
p1015
NsS'iphone-splash'
p1016
NsS'iphone-app-fonts'
p1017
NsS'wp8-ext-native-dll'
p1018
(lp1019
sS'wp81-splash-screen-image480x800'
p1020
NsS'ws81-distribution-cer'
p1021
NsS'iphone-backgroundmode-audio'
p1022
NsS'uiq3-icon2'
p1023
NsS'uiq3-icon3'
p1024
NsS'uiq3-icon1'
p1025
NsS'uiq3-icon1-format'
p1026
NsS'ws8-logo-image50x50'
p1027
NsS'iphone-icon-ipad-search'
p1028
NsS'symbian-run-on-install'
p1029
NsS'wp81-description'
p1030
NsS'ws81-publisher-display-name'
p1031
NsS'firefoxos-xulrunner'
p1032
NsS'symbian-soundrecordsupport'
p1033
NsS'nds-bannertitle-sp'
p1034
NsS'psp-producer'
p1035
NsS'iphone-apple-wwdr-cert'
p1036
NsS'android-icon-nonstandard'
p1037
NsS'win32-pref-processtitle'
p1038
NsS'nds-bannertitle-hn'
p1039
NsS'tizen-dist2-key'
p1040
NsS'brew-depends'
p1041
NsS'ws81-custom-manifest'
p1042
NsS'iphone-allow-launch-rotation'
p1043
NsS'iphone-icon-ipad-search-ios7'
p1044
NsS'brew-icon-medium'
p1045
NsS'iphone-bundle-url-name'
p1046
NsS'wp8-tile-fliptemplate-large-front-image'
p1047
NsS'tizen-dist2-CA-root-path'
p1048
NsS'ws81-description'
p1049
NsS'uiq3-icon3-format'
p1050
NsS'ws81-logo-image30x30'
p1051
NsS'win8-phone-extra-res'
p1052
(lp1053
sS'iphone-signing-host'
p1054
NsS'tizen-icon'
p1055
NsS'osx-info-plist'
p1056
NsS'symbian-icon1-format'
p1057
NsS'ws81-distribution-pfx'
p1058
NsS'win32-aux-dll'
p1059
(lp1060
sS'blackberry-authorid'
p1061
NsS'ws81-publisher-id'
p1062
NsS'win8-store-extra-res'
p1063
(lp1064
sS'wp8-description'
p1065
NsS'iphone-link-opts'
p1066
(lp1067
S'-Fc:/marmalade/7.8/platform_libs/iphone/amazon-ads-ios-sdk/third_party/Ads -framework AmazonAd'
p1068
aS'-weak_framework AdSupport -weak_framework CoreLocation -weak_framework SystemConfiguration'
p1069
aS'-weak_framework CoreTelephony -weak_framework MediaPlayer'
p1070
aS'-weak_framework EventKit -weak_framework EventKitUI'
p1071
asS'ws81-ext-sdk-ref'
p1072
(lp1073
sS'roku-splash-min-time'
p1074
NsS'wp8-tile-fliptemplate-medium-front-image'
p1075
NsS'iphone-disable-launch-images'
p1076
NsS'android-sdk-platform-version'
p1077
NsS'provider'
p1078
NsS'playbook-keystore'
p1079
NsS'tizen-appid'
p1080
NsS'wp8-extra-res'
p1081
(lp1082
sS'symbian-osexecsupport'
p1083
NsS'android-install-location'
p1084
NsS'nds-privatesavedatasize'
p1085
NsS'iphone-disable-testflight'
p1086
NsS'playbook-storepass'
p1087
NsS'android-icon-ldpi'
p1088
NsS'manufacturer'
p1089
NsS'itunes-artwork'
p1090
NsS'iphone-extra-sections'
p1091
NsS'ws81-product-name'
p1092
NsS'ws81-ext-native-dll'
p1093
(lp1094
sS'ws8-extra-pri'
p1095
(lp1096
sS'wp8-product-id'
p1097
NsS'ws8-logo-image30x30'
p1098
NsS'wp8-ext-managed-dll'
p1099
(lp1100
sS'iphone-splashscreen-landscape'
p1101
NsS'symbian-maxheapsize'
p1102
NsS'android-extra-packages'
p1103
(lp1104
sS'priv-sign-key'
p1105
NsS'networking'
p1106
NsS'android-icon'
p1107
NsS'iphone-icon-settings'
p1108
NsS'nacl-manifest'
p1109
NsS'wp81-phone-product-id'
p1110
NsS'firefoxos-icon-60X60'
p1111
NsS'iphone-distribution-cert'
p1112
NsS'android_extra_strings'
p1113
NsS'nds-bannertitle-en'
p1114
NsS'blackberry-permissions-record-audio'
p1115
NsS'android-so'
p1116
(lp1117
S'c:/marmalade/7.8/extensions/s3eamazonads/lib/android/libs3eAmazonAds.so'
p1118
asS'wp8-higher-mem'
p1119
NsS'wp8-ext-sdk-ref'
p1120
(lp1121
sS'wp8-fast-resume-mode'
p1122
NsS'roku-splash-screen-hd'
p1123
NsS'iphone-bundle-url-schemes'
p1124
NsS'roku-screensaver-private'
p1125
NsS'osx-extra-res'
p1126
(lp1127
sS'ws81-extra-res'
p1128
(lp1129
sS'playbook-icon'
p1130
NsS'uid'
p1131
NsS'pkguid-as-uid'
p1132
NsS'wp81-ext-native-dll'
p1133
(lp1134
sS'tizen-dist1-password'
p1135
NsS'roku-screensaver-title'
p1136
NsS'osx-minimum-osx-version'
p1137
NsS'symbian-cert'
p1138
NsS'iphone-icon'
p1139
NsS'ws81-ext-capabilities'
p1140
(lp1141
sS'ws8-distribution-cer'
p1142
NsS'playbook-access-shared'
p1143
NsS'iphone-icon-ipad-high-res-ios7'
p1144
NsS'iphone-link-libs'
p1145
(lp1146
sS'wp8-exclude-wvga'
p1147
NsS'assets'
p1148
NsS'wp8-tile-fliptemplate-large-back-image'
p1149
NsS'wp8-custom-manifest-fill'
p1150
NsS'pub-sign-key'
p1151
NsS'android-extra-strings'
p1152
(lp1153
sS'tizen-author-CA-path'
p1154
Nssg365
g643
sbssS'platform'
p1155
S'S3E'
p1156
sg73
S'1.0'
p1157
sS'arcade_platform'
p1158
g4
sS'extensions'
p1159
(dp1160
sS'source_groups_tree'
p1161
(dp1162
S'(libpng)'
p1163
(dp1164
S'h'
p1165
(dp1166
S'c:/marmalade/7.8/modules/third_party/libpng/h/pngconf.h'
p1167
(lp1168
I1
a(dp1169
asS'c:/marmalade/7.8/modules/third_party/libpng/h/png.h'
p1170
(lp1171
I1
ag1169
assS'c:/marmalade/7.8/modules/third_party/libpng/libpng.mkf'
p1172
(lp1173
I1
a(dp1174
assS'(amazon-ads-android-sdk)'
p1175
(dp1176
S'c:/marmalade/7.8/platform_libs/android/amazon-ads-android-sdk/amazon-ads-android-sdk.mkf'
p1177
(lp1178
I1
a(dp1179
assS'(tiniconv)'
p1180
(dp1181
S'c:/marmalade/7.8/modules/third_party/tiniconv/source/tiniconv.h'
p1182
(lp1183
I1
a(dp1184
asS'c:/marmalade/7.8/modules/third_party/tiniconv/source/tiniconv_int.h'
p1185
(lp1186
I1
ag1184
asS'c:/marmalade/7.8/modules/third_party/tiniconv/tiniconv.mkf'
p1187
(lp1188
I1
a(dp1189
assS'(amazon-ads-ios-sdk)'
p1190
(dp1191
S'c:/marmalade/7.8/platform_libs/iphone/amazon-ads-ios-sdk/amazon-ads-ios-sdk.mkf'
p1192
(lp1193
I1
a(dp1194
assS'Source'
p1195
(dp1196
S'c:/Users/ext.vicu/Desktop/App/app/App/source/Input.cpp'
p1197
(lp1198
I1
a(dp1199
asS'c:/Users/ext.vicu/Desktop/App/app/App/source/Input.h'
p1200
(lp1201
I1
ag1199
asS'c:/Users/ext.vicu/Desktop/App/app/App/source/Audio.h'
p1202
(lp1203
I1
ag1199
asS'c:/Users/ext.vicu/Desktop/App/app/App/source/Audio.cpp'
p1204
(lp1205
I1
ag1199
asS'c:/Users/ext.vicu/Desktop/App/app/App/source/App.cpp'
p1206
(lp1207
I1
ag1199
assS'Extensions'
p1208
(dp1209
S's3eAmazonAds'
p1210
(dp1211
S'interface'
p1212
(dp1213
S'c:/marmalade/7.8/extensions/s3eamazonads/interface/s3eAmazonAds_interface.cpp'
p1214
(lp1215
I1
a(dp1216
asS'c:/marmalade/7.8/extensions/s3eamazonads/interface/s3eAmazonAds.defines.txt'
p1217
(lp1218
I1
ag1216
assS'c:/marmalade/7.8/extensions/s3eamazonads/s3eamazonads.mkf'
p1219
(lp1220
I1
a(dp1221
asS'c:/marmalade/7.8/extensions/s3eamazonads/h/s3eAmazonAds.h'
p1222
(lp1223
I1
ag1216
assS'PVRTexTool'
p1224
(dp1225
S'interface'
p1226
(dp1227
S'c:/marmalade/7.8/extensions/pvrtextool/interface/PVRTexTool.defines.txt'
p1228
(lp1229
I1
a(dp1230
asS'c:/marmalade/7.8/extensions/pvrtextool/interface/PVRTexTool_interface.cpp'
p1231
(lp1232
I1
ag1230
assS'c:/marmalade/7.8/extensions/pvrtextool/h/PVRTexTool.h'
p1233
(lp1234
I1
ag1230
asS'c:/marmalade/7.8/extensions/pvrtextool/pvrtextool.mkf'
p1235
(lp1236
I1
a(dp1237
asssS'(s3e-default)'
p1238
(dp1239
S'c:/marmalade/7.8/s3e/s3e-default.mkf'
p1240
(lp1241
I1
a(dp1242
assS"'Marmalade Studio'"
p1243
(dp1244
S'iw2dscenegraph'
p1245
(dp1246
S'c:/marmalade/7.8/modules/iw2dscenegraph/source/Iw2DSceneGraph.cpp'
p1247
(lp1248
I1
a(dp1249
asS'c:/marmalade/7.8/modules/iw2dscenegraph/docs/iw2dscenegraph.defines.txt'
p1250
(lp1251
I1
ag1249
asS'c:/marmalade/7.8/modules/iw2dscenegraph/iw2dscenegraph.mkf'
p1252
(lp1253
I1
a(dp1254
asS'c:/marmalade/7.8/modules/iw2dscenegraph/h/Iw2DSceneGraph.h'
p1255
(lp1256
I1
ag1249
assS'iwgl'
p1257
(dp1258
S'c:/marmalade/7.8/modules/iwgl/h/IwGL.h'
p1259
(lp1260
I1
a(dp1261
asS'c:/marmalade/7.8/modules/iwgl/iwgl.mkf'
p1262
(lp1263
I1
a(dp1264
asS'c:/marmalade/7.8/modules/iwgl/docs/iwgl.config.txt'
p1265
(lp1266
I1
ag1261
asS'c:/marmalade/7.8/modules/iwgl/h/IwGLExt.h'
p1267
(lp1268
I1
ag1261
assS'iw2d'
p1269
(dp1270
S'c:/marmalade/7.8/modules/iw2d/docs/iw2d.config.txt'
p1271
(lp1272
I1
a(dp1273
asS'c:/marmalade/7.8/modules/iw2d/iw2d.mkf'
p1274
(lp1275
I1
a(dp1276
asS'c:/marmalade/7.8/modules/iw2d/docs/iw2d_public.defines.txt'
p1277
(lp1278
I1
ag1273
asS'c:/marmalade/7.8/modules/iw2d/h/Iw2D.h'
p1279
(lp1280
I1
ag1273
assS'iwgxfont'
p1281
(dp1282
S'c:/marmalade/7.8/modules/iwgxfont/h/IwGxFontState.h'
p1283
(lp1284
I1
a(dp1285
asS'c:/marmalade/7.8/modules/iwgxfont/iwgxfont.mkf'
p1286
(lp1287
I1
a(dp1288
asS'c:/marmalade/7.8/modules/iwgxfont/h/IwGxFontTypes.h'
p1289
(lp1290
I1
ag1285
asS'c:/marmalade/7.8/modules/iwgxfont/docs/iwgxfont_public.defines.txt'
p1291
(lp1292
I1
ag1285
asS'c:/marmalade/7.8/modules/iwgxfont/h/IwGxFont.h'
p1293
(lp1294
I1
ag1285
asS'c:/marmalade/7.8/modules/iwgxfont/h/IwGxFontPreparedData.h'
p1295
(lp1296
I1
ag1285
asS'c:/marmalade/7.8/modules/iwgxfont/h/IwGxFontGlyph.h'
p1297
(lp1298
I1
ag1285
asS'c:/marmalade/7.8/modules/iwgxfont/docs/iwgxfont.config.txt'
p1299
(lp1300
I1
ag1285
asS'c:/marmalade/7.8/modules/iwgxfont/h/IwGxFontContainer.h'
p1301
(lp1302
I1
ag1285
assS'iwgeom'
p1303
(dp1304
S'c:/marmalade/7.8/modules/iwgeom/h/IwGeomQuat.h.tpl'
p1305
(lp1306
I1
a(dp1307
asS'c:/marmalade/7.8/modules/iwgeom/h/IwGeomSphere.h'
p1308
(lp1309
I1
ag1307
asS'c:/marmalade/7.8/modules/iwgeom/h/IwGeomFMat2D.h'
p1310
(lp1311
I1
ag1307
asS'c:/marmalade/7.8/modules/iwgeom/h/IwGeomPlane.h'
p1312
(lp1313
I1
ag1307
asS'c:/marmalade/7.8/modules/iwgeom/h/IwGeomMat2D.h'
p1314
(lp1315
I1
ag1307
asS'c:/marmalade/7.8/modules/iwgeom/h/IwGeomSVec3.h'
p1316
(lp1317
I1
ag1307
asS'c:/marmalade/7.8/modules/iwgeom/h/IwGeomFVec3.h'
p1318
(lp1319
I1
ag1307
asS'c:/marmalade/7.8/modules/iwgeom/h/IwGeomFVec2.h'
p1320
(lp1321
I1
ag1307
asS'c:/marmalade/7.8/modules/iwgeom/h/IwGeomSVec4.h'
p1322
(lp1323
I1
ag1307
asS'c:/marmalade/7.8/modules/iwgeom/h/IwGeomIntersect.h'
p1324
(lp1325
I1
ag1307
asS'c:/marmalade/7.8/modules/iwgeom/h/IwGeomSVec2.h'
p1326
(lp1327
I1
ag1307
asS'c:/marmalade/7.8/modules/iwgeom/h/IwGeomFIntersect.h'
p1328
(lp1329
I1
ag1307
asS'c:/marmalade/7.8/modules/iwgeom/iwgeom.mkf'
p1330
(lp1331
I1
a(dp1332
asS'c:/marmalade/7.8/modules/iwgeom/h/IwGeomSQuat.h'
p1333
(lp1334
I1
ag1307
asS'c:/marmalade/7.8/modules/iwgeom/h/IwGeomMat.h'
p1335
(lp1336
I1
ag1307
asS'c:/marmalade/7.8/modules/iwgeom/h/IwGeomSqrt.h'
p1337
(lp1338
I1
ag1307
asS'c:/marmalade/7.8/modules/iwgeom/h/IwGeomLegacy.h'
p1339
(lp1340
I1
ag1307
asS'c:/marmalade/7.8/modules/iwgeom/h/IwGeomVec4.h'
p1341
(lp1342
I1
ag1307
asS'c:/marmalade/7.8/modules/iwgeom/h/IwGeomMenu.h'
p1343
(lp1344
I1
ag1307
asS'c:/marmalade/7.8/modules/iwgeom/h/IwGeom.h'
p1345
(lp1346
I1
ag1307
asS'c:/marmalade/7.8/modules/iwgeom/h/IwGeomFBBox.h'
p1347
(lp1348
I1
ag1307
asS'c:/marmalade/7.8/modules/iwgeom/h/IwGeomFPlane.h'
p1349
(lp1350
I1
ag1307
asS'c:/marmalade/7.8/modules/iwgeom/h/IwGeomQuat.h'
p1351
(lp1352
I1
ag1307
asS'c:/marmalade/7.8/modules/iwgeom/h/IwGeomVec2.h'
p1353
(lp1354
I1
ag1307
asS'c:/marmalade/7.8/modules/iwgeom/h/IwGeomFMat.h'
p1355
(lp1356
I1
ag1307
asS'c:/marmalade/7.8/modules/iwgeom/h/IwGeomMat.h.tpl'
p1357
(lp1358
I1
ag1307
asS'c:/marmalade/7.8/modules/iwgeom/h/IwGeomVec3.h'
p1359
(lp1360
I1
ag1307
asS'c:/marmalade/7.8/modules/iwgeom/h/IwGeomFQuat.h'
p1361
(lp1362
I1
ag1307
asS'c:/marmalade/7.8/modules/iwgeom/h/IwGeomCore.h'
p1363
(lp1364
I1
ag1307
asS'c:/marmalade/7.8/modules/iwgeom/h/IwGeomBBox.h'
p1365
(lp1366
I1
ag1307
asS'c:/marmalade/7.8/modules/iwgeom/h/IwGeomFVec4.h'
p1367
(lp1368
I1
ag1307
asS'c:/marmalade/7.8/modules/iwgeom/h/IwGeomVec.h.tpl'
p1369
(lp1370
I1
ag1307
asS'c:/marmalade/7.8/modules/iwgeom/h/IwGeomFSphere.h'
p1371
(lp1372
I1
ag1307
asS'c:/marmalade/7.8/modules/iwgeom/h/IwGeomVec.h'
p1373
(lp1374
I1
ag1307
asS'c:/marmalade/7.8/modules/iwgeom/docs/iwgeom.config.txt'
p1375
(lp1376
I1
ag1307
asS'c:/marmalade/7.8/modules/iwgeom/h/IwGeomMat2D.h.tpl'
p1377
(lp1378
I1
ag1307
assS'iwresmanager'
p1379
(dp1380
S'c:/marmalade/7.8/modules/iwresmanager/h/IwResHandler.h'
p1381
(lp1382
I1
a(dp1383
asS'c:/marmalade/7.8/modules/iwresmanager/iwresmanager.mkf'
p1384
(lp1385
I1
a(dp1386
asS'c:/marmalade/7.8/modules/iwresmanager/h/IwResManager.h'
p1387
(lp1388
I1
ag1383
asS'c:/marmalade/7.8/modules/iwresmanager/h/IwResHandlerImage.h'
p1389
(lp1390
I1
ag1383
asS'c:/marmalade/7.8/modules/iwresmanager/h/IwResSerialise.h'
p1391
(lp1392
I1
ag1383
asS'c:/marmalade/7.8/modules/iwresmanager/h/IwResHandlerITX.h'
p1393
(lp1394
I1
ag1383
asS'c:/marmalade/7.8/modules/iwresmanager/h/IwResGroup.h'
p1395
(lp1396
I1
ag1383
asS'c:/marmalade/7.8/modules/iwresmanager/h/IwResManagerClass.h'
p1397
(lp1398
I1
ag1383
asS'c:/marmalade/7.8/modules/iwresmanager/h/IwResHandlerGROUP.h'
p1399
(lp1400
I1
ag1383
asS'c:/marmalade/7.8/modules/iwresmanager/docs/iwresmanager.config.txt'
p1401
(lp1402
I1
ag1383
assS'iwgx'
p1403
(dp1404
S'c:/marmalade/7.8/modules/iwgx/h/IwGxError.h'
p1405
(lp1406
I1
a(dp1407
asS'c:/marmalade/7.8/modules/iwgx/h/IwDebugPrim.h'
p1408
(lp1409
I1
ag1407
asS'c:/marmalade/7.8/modules/iwgx/h/IwGxPrint.h'
p1410
(lp1411
I1
ag1407
asS'c:/marmalade/7.8/modules/iwgx/h/IwGxStream.h'
p1412
(lp1413
I1
ag1407
asS'c:/marmalade/7.8/modules/iwgx/h/IwGxTypes.h'
p1414
(lp1415
I1
ag1407
asS'c:/marmalade/7.8/modules/iwgx/h/IwGxFuncTable.h'
p1416
(lp1417
I1
ag1407
asS'c:/marmalade/7.8/modules/iwgx/iwgx.mkf'
p1418
(lp1419
I1
a(dp1420
asS'c:/marmalade/7.8/modules/iwgx/h/IwGxSurface.h'
p1421
(lp1422
I1
ag1407
asS'c:/marmalade/7.8/modules/iwgx/h/IwGx.h'
p1423
(lp1424
I1
ag1407
asS'c:/marmalade/7.8/modules/iwgx/h/IwGxTransformSW.h'
p1425
(lp1426
I1
ag1407
asS'c:/marmalade/7.8/modules/iwgx/h/IwGxDebug.h'
p1427
(lp1428
I1
ag1407
asS'c:/marmalade/7.8/modules/iwgx/h/IwMatAnim.h'
p1429
(lp1430
I1
ag1407
asS'c:/marmalade/7.8/modules/iwgx/h/IwTPage.h'
p1431
(lp1432
I1
ag1407
asS'c:/marmalade/7.8/modules/iwgx/h/IwTexture.h'
p1433
(lp1434
I1
ag1407
asS'c:/marmalade/7.8/modules/iwgx/docs/iwgx.config.txt'
p1435
(lp1436
I1
ag1407
asS'c:/marmalade/7.8/modules/iwgx/h/IwClip.inl'
p1437
(lp1438
I1
ag1407
asS'c:/marmalade/7.8/modules/iwgx/h/IwColour.h'
p1439
(lp1440
I1
ag1407
asS'c:/marmalade/7.8/modules/iwgx/h/IwClip.h'
p1441
(lp1442
I1
ag1407
asS'c:/marmalade/7.8/modules/iwgx/h/IwMaterial.h'
p1443
(lp1444
I1
ag1407
asS'c:/marmalade/7.8/modules/iwgx/h/IwFColour.h'
p1445
(lp1446
I1
ag1407
asS'c:/marmalade/7.8/modules/iwgx/h/IwResHandlerMTL.h'
p1447
(lp1448
I1
ag1407
asS'c:/marmalade/7.8/modules/iwgx/h/IwGxMetrics.h'
p1449
(lp1450
I1
ag1407
asS'c:/marmalade/7.8/modules/iwgx/h/IwGxState.h'
p1451
(lp1452
I1
ag1407
asS'c:/marmalade/7.8/modules/iwgx/docs/iwgx_public.defines.txt'
p1453
(lp1454
I1
ag1407
asS'c:/marmalade/7.8/modules/iwgx/h/IwGxShaderTechnique.h'
p1455
(lp1456
I1
ag1407
assS'iw2dscenegraphcore'
p1457
(dp1458
S'c:/marmalade/7.8/modules/iw2dscenegraphcore/h/Iw2DSceneGraphCore.h'
p1459
(lp1460
I1
a(dp1461
asS'c:/marmalade/7.8/modules/iw2dscenegraphcore/iw2dscenegraphcore.mkf'
p1462
(lp1463
I1
a(dp1464
asS'c:/marmalade/7.8/modules/iw2dscenegraphcore/source/Iw2DSceneGraphCore.cpp'
p1465
(lp1466
I1
ag1461
assS'iwutil'
p1467
(dp1468
S'c:/marmalade/7.8/modules/iwutil/h/IwSerialise.h'
p1469
(lp1470
I1
a(dp1471
asS'c:/marmalade/7.8/modules/iwutil/h/IwTextParser.h'
p1472
(lp1473
I1
ag1471
asS'c:/marmalade/7.8/modules/iwutil/h/IwMenu.h'
p1474
(lp1475
I1
ag1471
asS'c:/marmalade/7.8/modules/iwutil/h/IwDivTable.h'
p1476
(lp1477
I1
ag1471
asS'c:/marmalade/7.8/modules/iwutil/h/IwFile.h'
p1478
(lp1479
I1
ag1471
asS'c:/marmalade/7.8/modules/iwutil/h/IwCopyingPtr.h'
p1480
(lp1481
I1
ag1471
asS'c:/marmalade/7.8/modules/iwutil/h/IwFibre.h'
p1482
(lp1483
I1
ag1471
asS'c:/marmalade/7.8/modules/iwutil/h/IwImage.h'
p1484
(lp1485
I1
ag1471
asS'c:/marmalade/7.8/modules/iwutil/h/IwMath.h'
p1486
(lp1487
I1
ag1471
asS'c:/marmalade/7.8/modules/iwutil/h/IwClassFactory.h'
p1488
(lp1489
I1
ag1471
asS'c:/marmalade/7.8/modules/iwutil/h/IwRuntime.h'
p1490
(lp1491
I1
ag1471
asS'c:/marmalade/7.8/modules/iwutil/h/IwTextParserITX.h'
p1492
(lp1493
I1
ag1471
asS'c:/marmalade/7.8/modules/iwutil/h/IwOptimiseThumb.h'
p1494
(lp1495
I1
ag1471
asS'c:/marmalade/7.8/modules/iwutil/h/IwList.h'
p1496
(lp1497
I1
ag1471
asS'c:/marmalade/7.8/modules/iwutil/h/IwUtilInitTerm.h'
p1498
(lp1499
I1
ag1471
asS'c:/marmalade/7.8/modules/iwutil/h/IwMemBucket.h'
p1500
(lp1501
I1
ag1471
asS'c:/marmalade/7.8/modules/iwutil/h/IwTextParseable.h'
p1502
(lp1503
I1
ag1471
asS'c:/marmalade/7.8/modules/iwutil/h/IwEvent.h'
p1504
(lp1505
I1
ag1471
asS'c:/marmalade/7.8/modules/iwutil/iwutil.mkf'
p1506
(lp1507
I1
a(dp1508
asS'c:/marmalade/7.8/modules/iwutil/h/IwBuffer.h'
p1509
(lp1510
I1
ag1471
asS'c:/marmalade/7.8/modules/iwutil/h/IwRandom.h'
p1511
(lp1512
I1
ag1471
asS'c:/marmalade/7.8/modules/iwutil/h/IwMemory.h'
p1513
(lp1514
I1
ag1471
asS'c:/marmalade/7.8/modules/iwutil/h/IwUtil.h'
p1515
(lp1516
I1
ag1471
asS'c:/marmalade/7.8/modules/iwutil/h/IwAllocator.h'
p1517
(lp1518
I1
ag1471
asS'c:/marmalade/7.8/modules/iwutil/h/IwOptimiseSpeed.h'
p1519
(lp1520
I1
ag1471
asS'c:/marmalade/7.8/modules/iwutil/h/IwManagedList.h'
p1521
(lp1522
I1
ag1471
asS'c:/marmalade/7.8/modules/iwutil/h/IwHashString.h'
p1523
(lp1524
I1
ag1471
asS'c:/marmalade/7.8/modules/iwutil/h/IwTypes.h'
p1525
(lp1526
I1
ag1471
asS'c:/marmalade/7.8/modules/iwutil/h/IwKeymap.h'
p1527
(lp1528
I1
ag1471
asS'c:/marmalade/7.8/modules/iwutil/h/IwSingleton.h'
p1529
(lp1530
I1
ag1471
asS'c:/marmalade/7.8/modules/iwutil/h/IwProfileMenu.h'
p1531
(lp1532
I1
ag1471
asS'c:/marmalade/7.8/modules/iwutil/h/IwString.h'
p1533
(lp1534
I1
ag1471
asS'c:/marmalade/7.8/modules/iwutil/h/IwImageHelper.h'
p1535
(lp1536
I1
ag1471
asS'c:/marmalade/7.8/modules/iwutil/h/IwUncopyable.h'
p1537
(lp1538
I1
ag1471
asS'c:/marmalade/7.8/modules/iwutil/h/IwArray.h'
p1539
(lp1540
I1
ag1471
asS'c:/marmalade/7.8/modules/iwutil/h/IwDivide.h'
p1541
(lp1542
I1
ag1471
asS'c:/marmalade/7.8/modules/iwutil/h/IwVariableBitField.h'
p1543
(lp1544
I1
ag1471
asS'c:/marmalade/7.8/modules/iwutil/h/IwMemBucketHelpers.h'
p1545
(lp1546
I1
ag1471
asS'c:/marmalade/7.8/modules/iwutil/h/IwOptimiseARM.h'
p1547
(lp1548
I1
ag1471
asS'c:/marmalade/7.8/modules/iwutil/docs/iwutil.config.txt'
p1549
(lp1550
I1
ag1471
asS'c:/marmalade/7.8/modules/iwutil/h/IwCore.h'
p1551
(lp1552
I1
ag1471
asS'c:/marmalade/7.8/modules/iwutil/h/IwPath.h'
p1553
(lp1554
I1
ag1471
asS'c:/marmalade/7.8/modules/iwutil/h/IwUTF8.h'
p1555
(lp1556
I1
ag1471
asS'c:/marmalade/7.8/modules/iwutil/h/IwChar.h'
p1557
(lp1558
I1
ag1471
asS'c:/marmalade/7.8/modules/iwutil/h/IwAutoFile.h'
p1559
(lp1560
I1
ag1471
asS'c:/marmalade/7.8/modules/iwutil/h/IwManaged.h'
p1561
(lp1562
I1
ag1471
asS'c:/marmalade/7.8/modules/iwutil/h/IwOptimiseSize.h'
p1563
(lp1564
I1
ag1471
asS'c:/marmalade/7.8/modules/iwutil/h/IwDebug.h'
p1565
(lp1566
I1
ag1471
asS'c:/marmalade/7.8/modules/iwutil/h/IwResource.h'
p1567
(lp1568
I1
ag1471
asS'c:/marmalade/7.8/modules/iwutil/h/IwMemManagerDL.h'
p1569
(lp1570
I1
ag1471
asssS'(zlib)'
p1571
(dp1572
g1165
(dp1573
S'c:/marmalade/7.8/modules/third_party/zlib/h/zlib.h'
p1574
(lp1575
I1
a(dp1576
asS'c:/marmalade/7.8/modules/third_party/zlib/h/zconf.h'
p1577
(lp1578
I1
ag1576
assS'c:/marmalade/7.8/modules/third_party/zlib/zlib.mkf'
p1579
(lp1580
I1
a(dp1581
assS'(iwtween)'
p1582
(dp1583
S'c:/marmalade/7.8/modules/iwtween/h/IwTween.h'
p1584
(lp1585
I1
a(dp1586
asS'c:/marmalade/7.8/modules/iwtween/iwtween.mkf'
p1587
(lp1588
I1
a(dp1589
asS'c:/marmalade/7.8/modules/iwtween/source/IwTween.cpp'
p1590
(lp1591
I1
ag1586
assS'(libjpeg)'
p1592
(dp1593
g1165
(dp1594
S'c:/marmalade/7.8/modules/third_party/libjpeg/h/jdhuff.h'
p1595
(lp1596
I1
a(dp1597
asS'c:/marmalade/7.8/modules/third_party/libjpeg/h/jversion.h'
p1598
(lp1599
I1
ag1597
asS'c:/marmalade/7.8/modules/third_party/libjpeg/h/jconfig.h'
p1600
(lp1601
I1
ag1597
asS'c:/marmalade/7.8/modules/third_party/libjpeg/h/jerror.h'
p1602
(lp1603
I1
ag1597
asS'c:/marmalade/7.8/modules/third_party/libjpeg/h/cdjpeg.h'
p1604
(lp1605
I1
ag1597
asS'c:/marmalade/7.8/modules/third_party/libjpeg/h/jchuff.h'
p1606
(lp1607
I1
ag1597
asS'c:/marmalade/7.8/modules/third_party/libjpeg/h/cderror.h'
p1608
(lp1609
I1
ag1597
asS'c:/marmalade/7.8/modules/third_party/libjpeg/h/jpegint.h'
p1610
(lp1611
I1
ag1597
asS'c:/marmalade/7.8/modules/third_party/libjpeg/h/transupp.h'
p1612
(lp1613
I1
ag1597
asS'c:/marmalade/7.8/modules/third_party/libjpeg/h/jmemsys.h'
p1614
(lp1615
I1
ag1597
asS'c:/marmalade/7.8/modules/third_party/libjpeg/h/jinclude.h'
p1616
(lp1617
I1
ag1597
asS'c:/marmalade/7.8/modules/third_party/libjpeg/h/jmorecfg.h'
p1618
(lp1619
I1
ag1597
asS'c:/marmalade/7.8/modules/third_party/libjpeg/h/jpeglib.h'
p1620
(lp1621
I1
ag1597
asS'c:/marmalade/7.8/modules/third_party/libjpeg/h/jdct.h'
p1622
(lp1623
I1
ag1597
assS'c:/marmalade/7.8/modules/third_party/libjpeg/libjpeg.mkf'
p1624
(lp1625
I1
a(dp1626
asssS'files'
p1627
(dp1628
S'IwGxFontPreparedData.h'
p1629
g339
(cmkb_main
File
p1630
g341
Ntp1631
Rp1632
(dp1633
S'flags'
p1634
g1285
sS'group'
p1635
(lp1636
S"'Marmalade Studio'"
p1637
ag1281
asg365
g1295
sbsS'iterator'
p1638
g339
(g1630
g341
Ntp1639
Rp1640
(dp1641
g1634
(dp1642
sg1635
(lp1643
S"'Marmalade System (S3E)'"
p1644
aS'stdc headers'
p1645
aS'c++'
p1646
asg365
S'c:/marmalade/7.8/s3e/h/std/c++/iterator'
p1647
sbsS'IwGL.h'
p1648
g339
(g1630
g341
Ntp1649
Rp1650
(dp1651
g1634
g1261
sg1635
(lp1652
S"'Marmalade Studio'"
p1653
ag1257
asg365
g1259
sbsS's3e.h'
p1654
g339
(g1630
g341
Ntp1655
Rp1656
(dp1657
g1634
g1642
sg1635
(lp1658
g1644
asg365
S'c:/marmalade/7.8/s3e/h/s3e.h'
p1659
sbsS'errno.h'
p1660
g339
(g1630
g341
Ntp1661
Rp1662
(dp1663
g1634
g1642
sg1635
(lp1664
g1644
aS'stdc headers'
p1665
asg365
S'c:/marmalade/7.8/s3e/h/std/errno.h'
p1666
sbsS'IwSingleton.h'
p1667
g339
(g1630
g341
Ntp1668
Rp1669
(dp1670
g1634
g1471
sg1635
(lp1671
S"'Marmalade Studio'"
p1672
ag1467
asg365
g1529
sbsS'dlfcn.h'
p1673
g339
(g1630
g341
Ntp1674
Rp1675
(dp1676
g1634
g1642
sg1635
g1664
sg365
S'c:/marmalade/7.8/s3e/h/std/dlfcn.h'
p1677
sbsS'stdio_streambuf'
p1678
g339
(g1630
g341
Ntp1679
Rp1680
(dp1681
g1634
g1642
sg1635
g1643
sg365
S'c:/marmalade/7.8/s3e/h/std/c++/stdio_streambuf'
p1682
sbsS'sched.h'
p1683
g339
(g1630
g341
Ntp1684
Rp1685
(dp1686
g1634
g1642
sg1635
g1664
sg365
S'c:/marmalade/7.8/s3e/h/std/sched.h'
p1687
sbsS'IwGeomFMat2D.h'
p1688
g339
(g1630
g341
Ntp1689
Rp1690
(dp1691
g1634
g1307
sg1635
(lp1692
S"'Marmalade Studio'"
p1693
ag1303
asg365
g1310
sbsS'cassert'
p1694
g339
(g1630
g341
Ntp1695
Rp1696
(dp1697
g1634
g1642
sg1635
g1643
sg365
S'c:/marmalade/7.8/s3e/h/std/c++/cassert'
p1698
sbsS'grp.h'
p1699
g339
(g1630
g341
Ntp1700
Rp1701
(dp1702
g1634
g1642
sg1635
g1664
sg365
S'c:/marmalade/7.8/s3e/h/std/grp.h'
p1703
sbsS'list'
p1704
g339
(g1630
g341
Ntp1705
Rp1706
(dp1707
g1634
g1642
sg1635
g1643
sg365
S'c:/marmalade/7.8/s3e/h/std/c++/list'
p1708
sbsS'IwGeomMat.h.tpl'
p1709
g339
(g1630
g341
Ntp1710
Rp1711
(dp1712
g1634
g1307
sg1635
g1692
sg365
g1357
sbsS'istream'
p1713
g339
(g1630
g341
Ntp1714
Rp1715
(dp1716
g1634
g1642
sg1635
g1643
sg365
S'c:/marmalade/7.8/s3e/h/std/c++/istream'
p1717
sbsS'jpeglib.h'
p1718
g339
(g1630
g341
Ntp1719
Rp1720
(dp1721
g1634
g1597
sg1635
(lp1722
g1592
ag1165
asg365
g1620
sbsS'iw2d_public.defines.txt'
p1723
g339
(g1630
g341
Ntp1724
Rp1725
(dp1726
g1634
g1273
sg1635
(lp1727
S"'Marmalade Studio'"
p1728
ag1269
asg365
g1277
sbsS'iostream.h'
p1729
g339
(g1630
g341
Ntp1730
Rp1731
(dp1732
g1634
g1642
sg1635
g1643
sg365
S'c:/marmalade/7.8/s3e/h/std/c++/iostream.h'
p1733
sbsS'string'
p1734
g339
(g1630
g341
Ntp1735
Rp1736
(dp1737
g1634
g1642
sg1635
g1643
sg365
S'c:/marmalade/7.8/s3e/h/std/c++/string'
p1738
sbsS'IwMemory.h'
p1739
g339
(g1630
g341
Ntp1740
Rp1741
(dp1742
g1634
g1471
sg1635
g1671
sg365
g1513
sbsS'IwGeomPlane.h'
p1743
g339
(g1630
g341
Ntp1744
Rp1745
(dp1746
g1634
g1307
sg1635
g1692
sg365
g1312
sbsS'iw2d.config.txt'
p1747
g339
(g1630
g341
Ntp1748
Rp1749
(dp1750
g1634
g1273
sg1635
g1727
sg365
g1271
sbsS'iomanip'
p1751
g339
(g1630
g341
Ntp1752
Rp1753
(dp1754
g1634
g1642
sg1635
g1643
sg365
S'c:/marmalade/7.8/s3e/h/std/c++/iomanip'
p1755
sbsS'iwgeom.mkf'
p1756
g339
(g1630
g341
Ntp1757
Rp1758
(dp1759
g1634
g1332
sg1635
g1692
sg365
g1330
sbsS'IwGxError.h'
p1760
g339
(g1630
g341
Ntp1761
Rp1762
(dp1763
g1634
g1407
sg1635
(lp1764
S"'Marmalade Studio'"
p1765
ag1403
asg365
g1405
sbsS'IwGeom.h'
p1766
g339
(g1630
g341
Ntp1767
Rp1768
(dp1769
g1634
g1307
sg1635
g1692
sg365
g1345
sbsS'IwGeomVec4.h'
p1770
g339
(g1630
g341
Ntp1771
Rp1772
(dp1773
g1634
g1307
sg1635
g1692
sg365
g1341
sbsS'dir.h'
p1774
g339
(g1630
g341
Ntp1775
Rp1776
(dp1777
g1634
g1642
sg1635
(lp1778
g1644
aS'stdc headers'
p1779
aS'sys'
p1780
asg365
S'c:/marmalade/7.8/s3e/h/std/sys/dir.h'
p1781
sbsS'locale.h'
p1782
g339
(g1630
g341
Ntp1783
Rp1784
(dp1785
g1634
g1642
sg1635
g1664
sg365
S'c:/marmalade/7.8/s3e/h/std/locale.h'
p1786
sbsS'vector'
p1787
g339
(g1630
g341
Ntp1788
Rp1789
(dp1790
g1634
g1642
sg1635
g1643
sg365
S'c:/marmalade/7.8/s3e/h/std/c++/vector'
p1791
sbsS'IwManaged.h'
p1792
g339
(g1630
g341
Ntp1793
Rp1794
(dp1795
g1634
g1471
sg1635
g1671
sg365
g1561
sbsS's3eCompass.h'
p1796
g339
(g1630
g341
Ntp1797
Rp1798
(dp1799
g1634
g1642
sg1635
g1658
sg365
S'c:/marmalade/7.8/s3e/h/s3eCompass.h'
p1800
sbsS'cderror.h'
p1801
g339
(g1630
g341
Ntp1802
Rp1803
(dp1804
g1634
g1597
sg1635
g1722
sg365
g1608
sbsS'climits'
p1805
g339
(g1630
g341
Ntp1806
Rp1807
(dp1808
g1634
g1642
sg1635
g1643
sg365
S'c:/marmalade/7.8/s3e/h/std/c++/climits'
p1809
sbsS's3eVibra.h'
p1810
g339
(g1630
g341
Ntp1811
Rp1812
(dp1813
g1634
g1642
sg1635
g1658
sg365
S'c:/marmalade/7.8/s3e/h/s3eVibra.h'
p1814
sbsS'jversion.h'
p1815
g339
(g1630
g341
Ntp1816
Rp1817
(dp1818
g1634
g1597
sg1635
g1722
sg365
g1598
sbsS'fnmatch.h'
p1819
g339
(g1630
g341
Ntp1820
Rp1821
(dp1822
g1634
g1642
sg1635
g1664
sg365
S'c:/marmalade/7.8/s3e/h/std/fnmatch.h'
p1823
sbsS'IwGxState.h'
p1824
g339
(g1630
g341
Ntp1825
Rp1826
(dp1827
g1634
g1407
sg1635
g1764
sg365
g1451
sbsS's3eAudio.h'
p1828
g339
(g1630
g341
Ntp1829
Rp1830
(dp1831
g1634
g1642
sg1635
g1658
sg365
S'c:/marmalade/7.8/s3e/h/s3eAudio.h'
p1832
sbsS's3eSurface.h'
p1833
g339
(g1630
g341
Ntp1834
Rp1835
(dp1836
g1634
g1642
sg1635
g1658
sg365
S'c:/marmalade/7.8/s3e/h/s3eSurface.h'
p1837
sbsS'new'
p1838
g339
(g1630
g341
Ntp1839
Rp1840
(dp1841
g1634
g1642
sg1635
g1643
sg365
S'c:/marmalade/7.8/s3e/h/std/c++/new'
p1842
sbsS's3eWindow.h'
p1843
g339
(g1630
g341
Ntp1844
Rp1845
(dp1846
g1634
g1642
sg1635
(lp1847
g1644
aS'Extensions'
p1848
asg365
S'c:/marmalade/7.8/s3e/h/ext/s3eWindow.h'
p1849
sbsS'IwBuffer.h'
p1850
g339
(g1630
g341
Ntp1851
Rp1852
(dp1853
g1634
g1471
sg1635
g1671
sg365
g1509
sbsS'IwGeomQuat.h.tpl'
p1854
g339
(g1630
g341
Ntp1855
Rp1856
(dp1857
g1634
g1307
sg1635
g1692
sg365
g1305
sbsS's3eOSExec.h'
p1858
g339
(g1630
g341
Ntp1859
Rp1860
(dp1861
g1634
g1642
sg1635
g1847
sg365
S'c:/marmalade/7.8/s3e/h/ext/s3eOSExec.h'
p1862
sbsS'IwGxTransformSW.h'
p1863
g339
(g1630
g341
Ntp1864
Rp1865
(dp1866
g1634
g1407
sg1635
g1764
sg365
g1425
sbsS'IwGxMetrics.h'
p1867
g339
(g1630
g341
Ntp1868
Rp1869
(dp1870
g1634
g1407
sg1635
g1764
sg365
g1449
sbsS'iwgxfont.config.txt'
p1871
g339
(g1630
g341
Ntp1872
Rp1873
(dp1874
g1634
g1285
sg1635
g1636
sg365
g1299
sbsS'gl2platform.h'
p1875
g339
(g1630
g341
Ntp1876
Rp1877
(dp1878
g1634
g1642
sg1635
(lp1879
g1644
aS'GL'
p1880
aS'GLES 2.0'
p1881
asg365
S'c:/marmalade/7.8/s3e/h/GLES2/gl2platform.h'
p1882
sbsS'iw2dscenegraph.defines.txt'
p1883
g339
(g1630
g341
Ntp1884
Rp1885
(dp1886
g1634
g1249
sg1635
(lp1887
S"'Marmalade Studio'"
p1888
ag1245
asg365
g1250
sbsS'queue'
p1889
g339
(g1630
g341
Ntp1890
Rp1891
(dp1892
g1634
g1642
sg1635
g1643
sg365
S'c:/marmalade/7.8/s3e/h/std/c++/queue'
p1893
sbsS'time_1.h'
p1894
g339
(g1630
g341
Ntp1895
Rp1896
(dp1897
g1634
g1642
sg1635
g1778
sg365
S'c:/marmalade/7.8/s3e/h/std/sys/time.h'
p1898
sbsS'Iw2D.h'
p1899
g339
(g1630
g341
Ntp1900
Rp1901
(dp1902
g1634
g1273
sg1635
g1727
sg365
g1279
sbsS'Input.cpp'
p1903
g339
(g1630
g341
Ntp1904
Rp1905
(dp1906
g1634
g1199
sg1635
(lp1907
g1195
asg365
g1197
sbsS'IwGeomVec2.h'
p1908
g339
(g1630
g341
Ntp1909
Rp1910
(dp1911
g1634
g1307
sg1635
g1692
sg365
g1353
sbsS's3eDevice.h'
p1912
g339
(g1630
g341
Ntp1913
Rp1914
(dp1915
g1634
g1642
sg1635
g1658
sg365
S'c:/marmalade/7.8/s3e/h/s3eDevice.h'
p1916
sbsS'malloc.h'
p1917
g339
(g1630
g341
Ntp1918
Rp1919
(dp1920
g1634
g1642
sg1635
g1664
sg365
S'c:/marmalade/7.8/s3e/h/std/malloc.h'
p1921
sbsS'stdarg.h'
p1922
g339
(g1630
g341
Ntp1923
Rp1924
(dp1925
g1634
g1642
sg1635
g1664
sg365
S'c:/marmalade/7.8/s3e/h/std/stdarg.h'
p1926
sbsS'IwGeomCore.h'
p1927
g339
(g1630
g341
Ntp1928
Rp1929
(dp1930
g1634
g1307
sg1635
g1692
sg365
g1363
sbsS'Iw2DSceneGraph.h'
p1931
g339
(g1630
g341
Ntp1932
Rp1933
(dp1934
g1634
g1249
sg1635
g1887
sg365
g1255
sbsS'endian.h'
p1935
g339
(g1630
g341
Ntp1936
Rp1937
(dp1938
g1634
g1642
sg1635
g1664
sg365
S'c:/marmalade/7.8/s3e/h/std/endian.h'
p1939
sbsS'gl3ext.h'
p1940
g339
(g1630
g341
Ntp1941
Rp1942
(dp1943
g1634
g1642
sg1635
(lp1944
g1644
aS'GL'
p1945
aS'GLES 3.0'
p1946
asg365
S'c:/marmalade/7.8/s3e/h/GLES3/gl3ext.h'
p1947
sbsS'glob.h'
p1948
g339
(g1630
g341
Ntp1949
Rp1950
(dp1951
g1634
g1642
sg1635
g1664
sg365
S'c:/marmalade/7.8/s3e/h/std/glob.h'
p1952
sbsS'fstream'
p1953
g339
(g1630
g341
Ntp1954
Rp1955
(dp1956
g1634
g1642
sg1635
g1643
sg365
S'c:/marmalade/7.8/s3e/h/std/c++/fstream'
p1957
sbsS's3eCamera.h'
p1958
g339
(g1630
g341
Ntp1959
Rp1960
(dp1961
g1634
g1642
sg1635
g1658
sg365
S'c:/marmalade/7.8/s3e/h/s3eCamera.h'
p1962
sbsS'jconfig.h'
p1963
g339
(g1630
g341
Ntp1964
Rp1965
(dp1966
g1634
g1597
sg1635
g1722
sg365
g1600
sbsS'memory'
p1967
g339
(g1630
g341
Ntp1968
Rp1969
(dp1970
g1634
g1642
sg1635
g1643
sg365
S'c:/marmalade/7.8/s3e/h/std/c++/memory'
p1971
sbsS'egl.h'
p1972
g339
(g1630
g341
Ntp1973
Rp1974
(dp1975
g1634
g1642
sg1635
(lp1976
g1644
aS'GL'
p1977
aS'EGL'
p1978
asg365
S'c:/marmalade/7.8/s3e/h/EGL/egl.h'
p1979
sbsS'IwClip.inl'
p1980
g339
(g1630
g341
Ntp1981
Rp1982
(dp1983
g1634
g1407
sg1635
g1764
sg365
g1437
sbsS'IwMemManagerDL.h'
p1984
g339
(g1630
g341
Ntp1985
Rp1986
(dp1987
g1634
g1471
sg1635
g1671
sg365
g1569
sbsS'deque'
p1988
g339
(g1630
g341
Ntp1989
Rp1990
(dp1991
g1634
g1642
sg1635
g1643
sg365
S'c:/marmalade/7.8/s3e/h/std/c++/deque'
p1992
sbsS'IwString.h'
p1993
g339
(g1630
g341
Ntp1994
Rp1995
(dp1996
g1634
g1471
sg1635
g1671
sg365
g1533
sbsS'cwchar'
p1997
g339
(g1630
g341
Ntp1998
Rp1999
(dp2000
g1634
g1642
sg1635
g1643
sg365
S'c:/marmalade/7.8/s3e/h/std/c++/cwchar'
p2001
sbsS'iwutil.mkf'
p2002
g339
(g1630
g341
Ntp2003
Rp2004
(dp2005
g1634
g1508
sg1635
g1671
sg365
g1506
sbsS'csignal'
p2006
g339
(g1630
g341
Ntp2007
Rp2008
(dp2009
g1634
g1642
sg1635
g1643
sg365
S'c:/marmalade/7.8/s3e/h/std/c++/csignal'
p2010
sbsS'float.h'
p2011
g339
(g1630
g341
Ntp2012
Rp2013
(dp2014
g1634
g1642
sg1635
g1664
sg365
S'c:/marmalade/7.8/s3e/h/std/float.h'
p2015
sbsS'pthread_alloc'
p2016
g339
(g1630
g341
Ntp2017
Rp2018
(dp2019
g1634
g1642
sg1635
g1643
sg365
S'c:/marmalade/7.8/s3e/h/std/c++/pthread_alloc'
p2020
sbsS'getopt.h'
p2021
g339
(g1630
g341
Ntp2022
Rp2023
(dp2024
g1634
g1642
sg1635
g1664
sg365
S'c:/marmalade/7.8/s3e/h/std/getopt.h'
p2025
sbsS'IwOptimiseARM.h'
p2026
g339
(g1630
g341
Ntp2027
Rp2028
(dp2029
g1634
g1471
sg1635
g1671
sg365
g1547
sbsS'times.h'
p2030
g339
(g1630
g341
Ntp2031
Rp2032
(dp2033
g1634
g1642
sg1635
g1778
sg365
S'c:/marmalade/7.8/s3e/h/std/sys/times.h'
p2034
sbsS'IwGeomFSphere.h'
p2035
g339
(g1630
g341
Ntp2036
Rp2037
(dp2038
g1634
g1307
sg1635
g1692
sg365
g1371
sbsS'amazon-ads-android-sdk.mkf'
p2039
g339
(g1630
g341
Ntp2040
Rp2041
(dp2042
g1634
g1179
sg1635
(lp2043
g1175
asg365
g1177
sbsS'IwTypes.h'
p2044
g339
(g1630
g341
Ntp2045
Rp2046
(dp2047
g1634
g1471
sg1635
g1671
sg365
g1525
sbsS'unistd.h'
p2048
g339
(g1630
g341
Ntp2049
Rp2050
(dp2051
g1634
g1642
sg1635
g1664
sg365
S'c:/marmalade/7.8/s3e/h/std/unistd.h'
p2052
sbsS'Input.h'
p2053
g339
(g1630
g341
Ntp2054
Rp2055
(dp2056
g1634
g1199
sg1635
g1907
sg365
g1200
sbsS's3eCompression.h'
p2057
g339
(g1630
g341
Ntp2058
Rp2059
(dp2060
g1634
g1642
sg1635
g1658
sg365
S'c:/marmalade/7.8/s3e/h/s3eCompression.h'
p2061
sbsS'langinfo.h'
p2062
g339
(g1630
g341
Ntp2063
Rp2064
(dp2065
g1634
g1642
sg1635
g1664
sg365
S'c:/marmalade/7.8/s3e/h/std/langinfo.h'
p2066
sbsS's3edebugHeap.h'
p2067
g339
(g1630
g341
Ntp2068
Rp2069
(dp2070
g1634
g1642
sg1635
g1847
sg365
S'c:/marmalade/7.8/s3e/h/ext/s3edebugHeap.h'
p2071
sbsS'AirplayVersion.h'
p2072
g339
(g1630
g341
Ntp2073
Rp2074
(dp2075
g1634
g1642
sg1635
g1658
sg365
S'c:/marmalade/7.8/s3e/h/AirplayVersion.h'
p2076
sbsS'gl2extimg.h'
p2077
g339
(g1630
g341
Ntp2078
Rp2079
(dp2080
g1634
g1642
sg1635
g1879
sg365
S'c:/marmalade/7.8/s3e/h/GLES2/gl2extimg.h'
p2081
sbsS'app.config.txt'
p2082
g339
(g1630
g341
Ntp2083
Rp2084
(dp2085
g1634
(dp2086
sg1635
g4
sg365
S'c:/Users/ext.vicu/Desktop/App/app/App/data/app.config.txt'
p2087
sbsS'IwGeomSqrt.h'
p2088
g339
(g1630
g341
Ntp2089
Rp2090
(dp2091
g1634
g1307
sg1635
g1692
sg365
g1337
sbsS'tiniconv_int.h'
p2092
g339
(g1630
g341
Ntp2093
Rp2094
(dp2095
g1634
g1184
sg1635
(lp2096
g1180
asg365
g1185
sbsS'syslog.h'
p2097
g339
(g1630
g341
Ntp2098
Rp2099
(dp2100
g1634
g1642
sg1635
g1664
sg365
S'c:/marmalade/7.8/s3e/h/std/syslog.h'
p2101
sbsS'IwGxFontTypes.h'
p2102
g339
(g1630
g341
Ntp2103
Rp2104
(dp2105
g1634
g1285
sg1635
g1636
sg365
g1289
sbsS'IwGeomFIntersect.h'
p2106
g339
(g1630
g341
Ntp2107
Rp2108
(dp2109
g1634
g1307
sg1635
g1692
sg365
g1328
sbsS'hash_map'
p2110
g339
(g1630
g341
Ntp2111
Rp2112
(dp2113
g1634
g1642
sg1635
g1643
sg365
S'c:/marmalade/7.8/s3e/h/std/c++/hash_map'
p2114
sbsS's3e.mkf'
p2115
g339
(g1630
g341
Ntp2116
Rp2117
(dp2118
g1634
(dp2119
sg1635
g1658
sg365
S'c:/marmalade/7.8/s3e/s3e.mkf'
p2120
sbsS'IwGeomMat2D.h.tpl'
p2121
g339
(g1630
g341
Ntp2122
Rp2123
(dp2124
g1634
g1307
sg1635
g1692
sg365
g1377
sbsS's3eOSReadString.h'
p2125
g339
(g1630
g341
Ntp2126
Rp2127
(dp2128
g1634
g1642
sg1635
g1847
sg365
S'c:/marmalade/7.8/s3e/h/ext/s3eOSReadString.h'
p2129
sbsS'map'
p2130
g339
(g1630
g341
Ntp2131
Rp2132
(dp2133
g1634
g1642
sg1635
g1643
sg365
S'c:/marmalade/7.8/s3e/h/std/c++/map'
p2134
sbsS'iwtween.mkf'
p2135
g339
(g1630
g341
Ntp2136
Rp2137
(dp2138
g1634
g1589
sg1635
(lp2139
g1582
asg365
g1587
sbsS'IwOptimiseSpeed.h'
p2140
g339
(g1630
g341
Ntp2141
Rp2142
(dp2143
g1634
g1471
sg1635
g1671
sg365
g1519
sbsS'msl_string.h'
p2144
g339
(g1630
g341
Ntp2145
Rp2146
(dp2147
g1634
g1642
sg1635
g1643
sg365
S'c:/marmalade/7.8/s3e/h/std/c++/msl_string.h'
p2148
sbsS'select.h'
p2149
g339
(g1630
g341
Ntp2150
Rp2151
(dp2152
g1634
g1642
sg1635
g1778
sg365
S'c:/marmalade/7.8/s3e/h/std/sys/select.h'
p2153
sbsS'zlib.mkf'
p2154
g339
(g1630
g341
Ntp2155
Rp2156
(dp2157
g1634
g1581
sg1635
(lp2158
g1571
asg365
g1579
sbsS'signal.h'
p2159
g339
(g1630
g341
Ntp2160
Rp2161
(dp2162
g1634
g1642
sg1635
g1664
sg365
S'c:/marmalade/7.8/s3e/h/std/signal.h'
p2163
sbsS'sigcontext.h'
p2164
g339
(g1630
g341
Ntp2165
Rp2166
(dp2167
g1634
g1642
sg1635
g1664
sg365
S'c:/marmalade/7.8/s3e/h/std/sigcontext.h'
p2168
sbsS'libpng.mkf'
p2169
g339
(g1630
g341
Ntp2170
Rp2171
(dp2172
g1634
g1174
sg1635
(lp2173
g1163
asg365
g1172
sbsS's3eClipboard.h'
p2174
g339
(g1630
g341
Ntp2175
Rp2176
(dp2177
g1634
g1642
sg1635
g1658
sg365
S'c:/marmalade/7.8/s3e/h/s3eClipboard.h'
p2178
sbsS'IwGxFuncTable.h'
p2179
g339
(g1630
g341
Ntp2180
Rp2181
(dp2182
g1634
g1407
sg1635
g1764
sg365
g1416
sbsS'IwResHandlerGROUP.h'
p2183
g339
(g1630
g341
Ntp2184
Rp2185
(dp2186
g1634
g1383
sg1635
(lp2187
g1243
ag1379
asg365
g1399
sbsS's3eDebug.h'
p2188
g339
(g1630
g341
Ntp2189
Rp2190
(dp2191
g1634
g1642
sg1635
g1658
sg365
S'c:/marmalade/7.8/s3e/h/s3eDebug.h'
p2192
sbsS'socket.h'
p2193
g339
(g1630
g341
Ntp2194
Rp2195
(dp2196
g1634
g1642
sg1635
g1778
sg365
S'c:/marmalade/7.8/s3e/h/std/sys/socket.h'
p2197
sbsS'glext.h'
p2198
g339
(g1630
g341
Ntp2199
Rp2200
(dp2201
g1634
g1642
sg1635
(lp2202
g1644
aS'GL'
p2203
aS'GLES 1.x'
p2204
asg365
S'c:/marmalade/7.8/s3e/h/GLES/glext.h'
p2205
sbsS'typeinfo.h'
p2206
g339
(g1630
g341
Ntp2207
Rp2208
(dp2209
g1634
g1642
sg1635
g1643
sg365
S'c:/marmalade/7.8/s3e/h/std/c++/typeinfo.h'
p2210
sbsS'typeinfo'
p2211
g339
(g1630
g341
Ntp2212
Rp2213
(dp2214
g1634
g1642
sg1635
g1643
sg365
S'c:/marmalade/7.8/s3e/h/std/c++/typeinfo'
p2215
sbsS'fstream.h'
p2216
g339
(g1630
g341
Ntp2217
Rp2218
(dp2219
g1634
g1642
sg1635
g1643
sg365
S'c:/marmalade/7.8/s3e/h/std/c++/fstream.h'
p2220
sbsS's3ePointer.h'
p2221
g339
(g1630
g341
Ntp2222
Rp2223
(dp2224
g1634
g1642
sg1635
g1658
sg365
S'c:/marmalade/7.8/s3e/h/s3ePointer.h'
p2225
sbsS'iw2d.mkf'
p2226
g339
(g1630
g341
Ntp2227
Rp2228
(dp2229
g1634
g1276
sg1635
g1727
sg365
g1274
sbsS'PVRTexTool.h'
p2230
g339
(g1630
g341
Ntp2231
Rp2232
(dp2233
g1634
g1230
sg1635
(lp2234
S'Extensions'
p2235
ag1224
asg365
g1233
sbsS's3eGL.h'
p2236
g339
(g1630
g341
Ntp2237
Rp2238
(dp2239
g1634
g1642
sg1635
g1658
sg365
S'c:/marmalade/7.8/s3e/h/s3eGL.h'
p2240
sbsS'IwGeomFVec2.h'
p2241
g339
(g1630
g341
Ntp2242
Rp2243
(dp2244
g1634
g1307
sg1635
g1692
sg365
g1320
sbsS'IwGeomSVec4.h'
p2245
g339
(g1630
g341
Ntp2246
Rp2247
(dp2248
g1634
g1307
sg1635
g1692
sg365
g1322
sbsS'poll.h'
p2249
g339
(g1630
g341
Ntp2250
Rp2251
(dp2252
g1634
g1642
sg1635
g1664
sg365
S'c:/marmalade/7.8/s3e/h/std/poll.h'
p2253
sbsS'IwMatAnim.h'
p2254
g339
(g1630
g341
Ntp2255
Rp2256
(dp2257
g1634
g1407
sg1635
g1764
sg365
g1429
sbsS'PVRTexTool.defines.txt'
p2258
g339
(g1630
g341
Ntp2259
Rp2260
(dp2261
g1634
g1230
sg1635
(lp2262
g2235
ag1224
ag1226
asg365
g1228
sbsS'IwGx.h'
p2263
g339
(g1630
g341
Ntp2264
Rp2265
(dp2266
g1634
g1407
sg1635
g1764
sg365
g1423
sbsS'valarray'
p2267
g339
(g1630
g341
Ntp2268
Rp2269
(dp2270
g1634
g1642
sg1635
g1643
sg365
S'c:/marmalade/7.8/s3e/h/std/c++/valarray'
p2271
sbsS'iosfwd'
p2272
g339
(g1630
g341
Ntp2273
Rp2274
(dp2275
g1634
g1642
sg1635
g1643
sg365
S'c:/marmalade/7.8/s3e/h/std/c++/iosfwd'
p2276
sbsS'gl2.h'
p2277
g339
(g1630
g341
Ntp2278
Rp2279
(dp2280
g1634
g1642
sg1635
g1879
sg365
S'c:/marmalade/7.8/s3e/h/GLES2/gl2.h'
p2281
sbsS'jpegint.h'
p2282
g339
(g1630
g341
Ntp2283
Rp2284
(dp2285
g1634
g1597
sg1635
g1722
sg365
g1610
sbsS'stdiostream.h'
p2286
g339
(g1630
g341
Ntp2287
Rp2288
(dp2289
g1634
g1642
sg1635
g1643
sg365
S'c:/marmalade/7.8/s3e/h/std/c++/stdiostream.h'
p2290
sbsS'mem.h'
p2291
g339
(g1630
g341
Ntp2292
Rp2293
(dp2294
g1634
g1642
sg1635
g1643
sg365
S'c:/marmalade/7.8/s3e/h/std/c++/mem.h'
p2295
sbsS'jerror.h'
p2296
g339
(g1630
g341
Ntp2297
Rp2298
(dp2299
g1634
g1597
sg1635
g1722
sg365
g1602
sbsS'zconf.h'
p2300
g339
(g1630
g341
Ntp2301
Rp2302
(dp2303
g1634
g1576
sg1635
(lp2304
g1571
ag1165
asg365
g1577
sbsS's3e.config.txt'
p2305
g339
(g1630
g341
Ntp2306
Rp2307
(dp2308
g1634
g1642
sg1635
g1658
sg365
S'c:/marmalade/7.8/s3e/s3e.config.txt'
p2309
sbsS'numeric'
p2310
g339
(g1630
g341
Ntp2311
Rp2312
(dp2313
g1634
g1642
sg1635
g1643
sg365
S'c:/marmalade/7.8/s3e/h/std/c++/numeric'
p2314
sbsS'utime.h'
p2315
g339
(g1630
g341
Ntp2316
Rp2317
(dp2318
g1634
g1642
sg1635
g1664
sg365
S'c:/marmalade/7.8/s3e/h/std/utime.h'
p2319
sbsS'jdhuff.h'
p2320
g339
(g1630
g341
Ntp2321
Rp2322
(dp2323
g1634
g1597
sg1635
g1722
sg365
g1595
sbsS'IwGxStream.h'
p2324
g339
(g1630
g341
Ntp2325
Rp2326
(dp2327
g1634
g1407
sg1635
g1764
sg365
g1412
sbsS'IwImage.h'
p2328
g339
(g1630
g341
Ntp2329
Rp2330
(dp2331
g1634
g1471
sg1635
g1671
sg365
g1484
sbsS's3eImagePicker.h'
p2332
g339
(g1630
g341
Ntp2333
Rp2334
(dp2335
g1634
g1642
sg1635
g1847
sg365
S'c:/marmalade/7.8/s3e/h/ext/s3eImagePicker.h'
p2336
sbsS'stdlib.h'
p2337
g339
(g1630
g341
Ntp2338
Rp2339
(dp2340
g1634
g1642
sg1635
g1664
sg365
S'c:/marmalade/7.8/s3e/h/std/stdlib.h'
p2341
sbsS'IwCopyingPtr.h'
p2342
g339
(g1630
g341
Ntp2343
Rp2344
(dp2345
g1634
g1471
sg1635
g1671
sg365
g1480
sbsS'iostream'
p2346
g339
(g1630
g341
Ntp2347
Rp2348
(dp2349
g1634
g1642
sg1635
g1643
sg365
S'c:/marmalade/7.8/s3e/h/std/c++/iostream'
p2350
sbsS'png.h'
p2351
g339
(g1630
g341
Ntp2352
Rp2353
(dp2354
g1634
g1169
sg1635
(lp2355
g1163
ag1165
asg365
g1170
sbsS'stddef.h'
p2356
g339
(g1630
g341
Ntp2357
Rp2358
(dp2359
g1634
g1642
sg1635
g1664
sg365
S'c:/marmalade/7.8/s3e/h/std/stddef.h'
p2360
sbsS'setjmp_win32.h'
p2361
g339
(g1630
g341
Ntp2362
Rp2363
(dp2364
g1634
g1642
sg1635
g1664
sg365
S'c:/marmalade/7.8/s3e/h/std/setjmp_win32.h'
p2365
sbsS'IwGxPrint.h'
p2366
g339
(g1630
g341
Ntp2367
Rp2368
(dp2369
g1634
g1407
sg1635
g1764
sg365
g1410
sbsS'iwgx_public.defines.txt'
p2370
g339
(g1630
g341
Ntp2371
Rp2372
(dp2373
g1634
g1407
sg1635
g1764
sg365
g1453
sbsS'streambuf.h'
p2374
g339
(g1630
g341
Ntp2375
Rp2376
(dp2377
g1634
g1642
sg1635
g1643
sg365
S'c:/marmalade/7.8/s3e/h/std/c++/streambuf.h'
p2378
sbsS'IwGeomFPlane.h'
p2379
g339
(g1630
g341
Ntp2380
Rp2381
(dp2382
g1634
g1307
sg1635
g1692
sg365
g1349
sbsS'wchar.h'
p2383
g339
(g1630
g341
Ntp2384
Rp2385
(dp2386
g1634
g1642
sg1635
g1664
sg365
S'c:/marmalade/7.8/s3e/h/std/wchar.h'
p2387
sbsS's3eCameraCapture.h'
p2388
g339
(g1630
g341
Ntp2389
Rp2390
(dp2391
g1634
g1642
sg1635
g1847
sg365
S'c:/marmalade/7.8/s3e/h/ext/s3eCameraCapture.h'
p2392
sbsS'eglext.h'
p2393
g339
(g1630
g341
Ntp2394
Rp2395
(dp2396
g1634
g1642
sg1635
g1976
sg365
S'c:/marmalade/7.8/s3e/h/EGL/eglext.h'
p2397
sbsS'IwResHandlerImage.h'
p2398
g339
(g1630
g341
Ntp2399
Rp2400
(dp2401
g1634
g1383
sg1635
g2187
sg365
g1389
sbsS'strstream.h'
p2402
g339
(g1630
g341
Ntp2403
Rp2404
(dp2405
g1634
g1642
sg1635
g1643
sg365
S'c:/marmalade/7.8/s3e/h/std/c++/strstream.h'
p2406
sbsS'tiniconv.h'
p2407
g339
(g1630
g341
Ntp2408
Rp2409
(dp2410
g1634
g1184
sg1635
g2096
sg365
g1182
sbsS'IwGLExt.h'
p2411
g339
(g1630
g341
Ntp2412
Rp2413
(dp2414
g1634
g1261
sg1635
g1652
sg365
g1267
sbsS'app.icf'
p2415
g339
(g1630
g341
Ntp2416
Rp2417
(dp2418
g1634
(dp2419
sg1635
g4
sg365
S'c:/Users/ext.vicu/Desktop/App/app/App/data/app.icf'
p2420
sbsS'IwClassFactory.h'
p2421
g339
(g1630
g341
Ntp2422
Rp2423
(dp2424
g1634
g1471
sg1635
g1671
sg365
g1488
sbsS'file.h'
p2425
g339
(g1630
g341
Ntp2426
Rp2427
(dp2428
g1634
g1642
sg1635
g1778
sg365
S'c:/marmalade/7.8/s3e/h/std/sys/file.h'
p2429
sbsS'cstring'
p2430
g339
(g1630
g341
Ntp2431
Rp2432
(dp2433
g1634
g1642
sg1635
g1643
sg365
S'c:/marmalade/7.8/s3e/h/std/c++/cstring'
p2434
sbsS'iwutil.config.txt'
p2435
g339
(g1630
g341
Ntp2436
Rp2437
(dp2438
g1634
g1471
sg1635
g1671
sg365
g1549
sbsS's3eSMS.h'
p2439
g339
(g1630
g341
Ntp2440
Rp2441
(dp2442
g1634
g1642
sg1635
g1847
sg365
S'c:/marmalade/7.8/s3e/h/ext/s3eSMS.h'
p2443
sbsS'limits.h'
p2444
g339
(g1630
g341
Ntp2445
Rp2446
(dp2447
g1634
g1642
sg1635
g1664
sg365
S'c:/marmalade/7.8/s3e/h/std/limits.h'
p2448
sbsS'iwgl.config.txt'
p2449
g339
(g1630
g341
Ntp2450
Rp2451
(dp2452
g1634
g1261
sg1635
g1652
sg365
g1265
sbsS'IwMaterial.h'
p2453
g339
(g1630
g341
Ntp2454
Rp2455
(dp2456
g1634
g1407
sg1635
g1764
sg365
g1443
sbsS'amazon-ads-ios-sdk.mkf'
p2457
g339
(g1630
g341
Ntp2458
Rp2459
(dp2460
g1634
g1194
sg1635
(lp2461
g1190
asg365
g1192
sbsS'PVRTexTool_interface.cpp'
p2462
g339
(g1630
g341
Ntp2463
Rp2464
(dp2465
g1634
g1230
sg1635
g2262
sg365
g1231
sbsS'IwGxSurface.h'
p2466
g339
(g1630
g341
Ntp2467
Rp2468
(dp2469
g1634
g1407
sg1635
g1764
sg365
g1421
sbsS's3eSocket.h'
p2470
g339
(g1630
g341
Ntp2471
Rp2472
(dp2473
g1634
g1642
sg1635
g1658
sg365
S'c:/marmalade/7.8/s3e/h/s3eSocket.h'
p2474
sbsS'IwAutoFile.h'
p2475
g339
(g1630
g341
Ntp2476
Rp2477
(dp2478
g1634
g1471
sg1635
g1671
sg365
g1559
sbsS'ipc.h'
p2479
g339
(g1630
g341
Ntp2480
Rp2481
(dp2482
g1634
g1642
sg1635
g1778
sg365
S'c:/marmalade/7.8/s3e/h/std/sys/ipc.h'
p2483
sbsS'poll_1.h'
p2484
g339
(g1630
g341
Ntp2485
Rp2486
(dp2487
g1634
g1642
sg1635
g1778
sg365
S'c:/marmalade/7.8/s3e/h/std/sys/poll.h'
p2488
sbsS's3eThread.h'
p2489
g339
(g1630
g341
Ntp2490
Rp2491
(dp2492
g1634
g1642
sg1635
g1658
sg365
S'c:/marmalade/7.8/s3e/h/s3eThread.h'
p2493
sbsS'ucontext.h'
p2494
g339
(g1630
g341
Ntp2495
Rp2496
(dp2497
g1634
g1642
sg1635
g1664
sg365
S'c:/marmalade/7.8/s3e/h/std/ucontext.h'
p2498
sbsS'time.h'
p2499
g339
(g1630
g341
Ntp2500
Rp2501
(dp2502
g1634
g1642
sg1635
g1664
sg365
S'c:/marmalade/7.8/s3e/h/std/time.h'
p2503
sbsS'jchuff.h'
p2504
g339
(g1630
g341
Ntp2505
Rp2506
(dp2507
g1634
g1597
sg1635
g1722
sg365
g1606
sbsS's3eSoundRecord.h'
p2508
g339
(g1630
g341
Ntp2509
Rp2510
(dp2511
g1634
g1642
sg1635
g1658
sg365
S'c:/marmalade/7.8/s3e/h/s3eSoundRecord.h'
p2512
sbsS'IwFibre.h'
p2513
g339
(g1630
g341
Ntp2514
Rp2515
(dp2516
g1634
g1471
sg1635
g1671
sg365
g1482
sbsS's3eVersion.h'
p2517
g339
(g1630
g341
Ntp2518
Rp2519
(dp2520
g1634
g1642
sg1635
g1658
sg365
S'c:/marmalade/7.8/s3e/h/s3eVersion.h'
p2521
sbsS'IwGxFontGlyph.h'
p2522
g339
(g1630
g341
Ntp2523
Rp2524
(dp2525
g1634
g1285
sg1635
g1636
sg365
g1297
sbsS's3eTypes.h'
p2526
g339
(g1630
g341
Ntp2527
Rp2528
(dp2529
g1634
g1642
sg1635
g1658
sg365
S'c:/marmalade/7.8/s3e/h/s3eTypes.h'
p2530
sbsS'signal_2.h'
p2531
g339
(g1630
g341
Ntp2532
Rp2533
(dp2534
g1634
g1642
sg1635
g1643
sg365
S'c:/marmalade/7.8/s3e/h/std/c++/signal.h'
p2535
sbsS'termios.h'
p2536
g339
(g1630
g341
Ntp2537
Rp2538
(dp2539
g1634
g1642
sg1635
g1664
sg365
S'c:/marmalade/7.8/s3e/h/std/termios.h'
p2540
sbsS's3eAmazonAds_interface.cpp'
p2541
g339
(g1630
g341
Ntp2542
Rp2543
(dp2544
g1634
g1216
sg1635
(lp2545
g1208
ag1210
ag1212
asg365
g1214
sbsS'iw2dscenegraph.mkf'
p2546
g339
(g1630
g341
Ntp2547
Rp2548
(dp2549
g1634
g1254
sg1635
g1887
sg365
g1252
sbsS'slist'
p2550
g339
(g1630
g341
Ntp2551
Rp2552
(dp2553
g1634
g1642
sg1635
g1643
sg365
S'c:/marmalade/7.8/s3e/h/std/c++/slist'
p2554
sbsS'cstdlib'
p2555
g339
(g1630
g341
Ntp2556
Rp2557
(dp2558
g1634
g1642
sg1635
g1643
sg365
S'c:/marmalade/7.8/s3e/h/std/c++/cstdlib'
p2559
sbsS's3eLocation.h'
p2560
g339
(g1630
g341
Ntp2561
Rp2562
(dp2563
g1634
g1642
sg1635
g1658
sg365
S'c:/marmalade/7.8/s3e/h/s3eLocation.h'
p2564
sbsS'App.cpp'
p2565
g339
(g1630
g341
Ntp2566
Rp2567
(dp2568
g1634
g1199
sg1635
g1907
sg365
g1206
sbsS'IwMemBucketHelpers.h'
p2569
g339
(g1630
g341
Ntp2570
Rp2571
(dp2572
g1634
g1471
sg1635
g1671
sg365
g1545
sbsS's3eHash.h'
p2573
g339
(g1630
g341
Ntp2574
Rp2575
(dp2576
g1634
g1642
sg1635
g1658
sg365
S'c:/marmalade/7.8/s3e/h/s3eHash.h'
p2577
sbsS'IwGeomFMat.h'
p2578
g339
(g1630
g341
Ntp2579
Rp2580
(dp2581
g1634
g1307
sg1635
g1692
sg365
g1355
sbsS'type_traits.h'
p2582
g339
(g1630
g341
Ntp2583
Rp2584
(dp2585
g1634
g1642
sg1635
g1643
sg365
S'c:/marmalade/7.8/s3e/h/std/c++/type_traits.h'
p2586
sbsS's3eAtomic.h'
p2587
g339
(g1630
g341
Ntp2588
Rp2589
(dp2590
g1634
g1642
sg1635
g1658
sg365
S'c:/marmalade/7.8/s3e/h/s3eAtomic.h'
p2591
sbsS'IwMenu.h'
p2592
g339
(g1630
g341
Ntp2593
Rp2594
(dp2595
g1634
g1471
sg1635
g1671
sg365
g1474
sbsS'IwResHandlerITX.h'
p2596
g339
(g1630
g341
Ntp2597
Rp2598
(dp2599
g1634
g1383
sg1635
g2187
sg365
g1393
sbsS'IwArray.h'
p2600
g339
(g1630
g341
Ntp2601
Rp2602
(dp2603
g1634
g1471
sg1635
g1671
sg365
g1539
sbsS'IwUTF8.h'
p2604
g339
(g1630
g341
Ntp2605
Rp2606
(dp2607
g1634
g1471
sg1635
g1671
sg365
g1555
sbsS'math_rvct.h'
p2608
g339
(g1630
g341
Ntp2609
Rp2610
(dp2611
g1634
g1642
sg1635
g1664
sg365
S'c:/marmalade/7.8/s3e/h/std/math_rvct.h'
p2612
sbsS'IwUtil.h'
p2613
g339
(g1630
g341
Ntp2614
Rp2615
(dp2616
g1634
g1471
sg1635
g1671
sg365
g1515
sbsS'IwFColour.h'
p2617
g339
(g1630
g341
Ntp2618
Rp2619
(dp2620
g1634
g1407
sg1635
g1764
sg365
g1445
sbsS's3eamazonads.mkf'
p2621
g339
(g1630
g341
Ntp2622
Rp2623
(dp2624
g1634
g1221
sg1635
(lp2625
g1208
ag1210
asg365
g1219
sbsS'wctype.h'
p2626
g339
(g1630
g341
Ntp2627
Rp2628
(dp2629
g1634
g1642
sg1635
g1664
sg365
S'c:/marmalade/7.8/s3e/h/std/wctype.h'
p2630
sbsS'cstddef'
p2631
g339
(g1630
g341
Ntp2632
Rp2633
(dp2634
g1634
g1642
sg1635
g1643
sg365
S'c:/marmalade/7.8/s3e/h/std/c++/cstddef'
p2635
sbsS'assert.h'
p2636
g339
(g1630
g341
Ntp2637
Rp2638
(dp2639
g1634
g1642
sg1635
g1664
sg365
S'c:/marmalade/7.8/s3e/h/std/assert.h'
p2640
sbsS'mman.h'
p2641
g339
(g1630
g341
Ntp2642
Rp2643
(dp2644
g1634
g1642
sg1635
g1778
sg365
S'c:/marmalade/7.8/s3e/h/std/sys/mman.h'
p2645
sbsS'IwRandom.h'
p2646
g339
(g1630
g341
Ntp2647
Rp2648
(dp2649
g1634
g1471
sg1635
g1671
sg365
g1511
sbsS'libgen.h'
p2650
g339
(g1630
g341
Ntp2651
Rp2652
(dp2653
g1634
g1642
sg1635
g1664
sg365
S'c:/marmalade/7.8/s3e/h/std/libgen.h'
p2654
sbsS'utsname.h'
p2655
g339
(g1630
g341
Ntp2656
Rp2657
(dp2658
g1634
g1642
sg1635
g1778
sg365
S'c:/marmalade/7.8/s3e/h/std/sys/utsname.h'
p2659
sbsS'wait.h'
p2660
g339
(g1630
g341
Ntp2661
Rp2662
(dp2663
g1634
g1642
sg1635
g1778
sg365
S'c:/marmalade/7.8/s3e/h/std/sys/wait.h'
p2664
sbsS'param.h'
p2665
g339
(g1630
g341
Ntp2666
Rp2667
(dp2668
g1634
g1642
sg1635
g1778
sg365
S'c:/marmalade/7.8/s3e/h/std/sys/param.h'
p2669
sbsS'IwDivide.h'
p2670
g339
(g1630
g341
Ntp2671
Rp2672
(dp2673
g1634
g1471
sg1635
g1671
sg365
g1541
sbsS'Iw2DSceneGraphCore.cpp'
p2674
g339
(g1630
g341
Ntp2675
Rp2676
(dp2677
g1634
g1461
sg1635
(lp2678
S"'Marmalade Studio'"
p2679
ag1457
asg365
g1465
sbsS'IwResManager.h'
p2680
g339
(g1630
g341
Ntp2681
Rp2682
(dp2683
g1634
g1383
sg1635
g2187
sg365
g1387
sbsS'ostream'
p2684
g339
(g1630
g341
Ntp2685
Rp2686
(dp2687
g1634
g1642
sg1635
g1643
sg365
S'c:/marmalade/7.8/s3e/h/std/c++/ostream'
p2688
sbsS'cwctype'
p2689
g339
(g1630
g341
Ntp2690
Rp2691
(dp2692
g1634
g1642
sg1635
g1643
sg365
S'c:/marmalade/7.8/s3e/h/std/c++/cwctype'
p2693
sbsS'set'
p2694
g339
(g1630
g341
Ntp2695
Rp2696
(dp2697
g1634
g1642
sg1635
g1643
sg365
S'c:/marmalade/7.8/s3e/h/std/c++/set'
p2698
sbsS'IwGeomSQuat.h'
p2699
g339
(g1630
g341
Ntp2700
Rp2701
(dp2702
g1634
g1307
sg1635
g1692
sg365
g1333
sbsS'locale'
p2703
g339
(g1630
g341
Ntp2704
Rp2705
(dp2706
g1634
g1642
sg1635
g1643
sg365
S'c:/marmalade/7.8/s3e/h/std/c++/locale'
p2707
sbsS'cstdio'
p2708
g339
(g1630
g341
Ntp2709
Rp2710
(dp2711
g1634
g1642
sg1635
g1643
sg365
S'c:/marmalade/7.8/s3e/h/std/c++/cstdio'
p2712
sbsS'cdjpeg.h'
p2713
g339
(g1630
g341
Ntp2714
Rp2715
(dp2716
g1634
g1597
sg1635
g1722
sg365
g1604
sbsS'IwList.h'
p2717
g339
(g1630
g341
Ntp2718
Rp2719
(dp2720
g1634
g1471
sg1635
g1671
sg365
g1496
sbsS'inttypes.h'
p2721
g339
(g1630
g341
Ntp2722
Rp2723
(dp2724
g1634
g1642
sg1635
g1664
sg365
S'c:/marmalade/7.8/s3e/h/std/inttypes.h'
p2725
sbsS'dirent.h'
p2726
g339
(g1630
g341
Ntp2727
Rp2728
(dp2729
g1634
g1642
sg1635
g1664
sg365
S'c:/marmalade/7.8/s3e/h/std/dirent.h'
p2730
sbsS'IwGeomVec3.h'
p2731
g339
(g1630
g341
Ntp2732
Rp2733
(dp2734
g1634
g1307
sg1635
g1692
sg365
g1359
sbsS'transupp.h'
p2735
g339
(g1630
g341
Ntp2736
Rp2737
(dp2738
g1634
g1597
sg1635
g1722
sg365
g1612
sbsS'IwMath.h'
p2739
g339
(g1630
g341
Ntp2740
Rp2741
(dp2742
g1634
g1471
sg1635
g1671
sg365
g1486
sbsS'IwGeomQuat.h'
p2743
g339
(g1630
g341
Ntp2744
Rp2745
(dp2746
g1634
g1307
sg1635
g1692
sg365
g1351
sbsS'glplatform.h'
p2747
g339
(g1630
g341
Ntp2748
Rp2749
(dp2750
g1634
g1642
sg1635
g2202
sg365
S'c:/marmalade/7.8/s3e/h/GLES/glplatform.h'
p2751
sbsS's3e-default.mkf'
p2752
g339
(g1630
g341
Ntp2753
Rp2754
(dp2755
g1634
g1242
sg1635
(lp2756
g1238
asg365
g1240
sbsS'bitset'
p2757
g339
(g1630
g341
Ntp2758
Rp2759
(dp2760
g1634
g1642
sg1635
g1643
sg365
S'c:/marmalade/7.8/s3e/h/std/c++/bitset'
p2761
sbsS'alloca.h'
p2762
g339
(g1630
g341
Ntp2763
Rp2764
(dp2765
g1634
g1642
sg1635
g1664
sg365
S'c:/marmalade/7.8/s3e/h/std/alloca.h'
p2766
sbsS'IwResHandler.h'
p2767
g339
(g1630
g341
Ntp2768
Rp2769
(dp2770
g1634
g1383
sg1635
g2187
sg365
g1381
sbsS'IwResHandlerMTL.h'
p2771
g339
(g1630
g341
Ntp2772
Rp2773
(dp2774
g1634
g1407
sg1635
g1764
sg365
g1447
sbsS'IwRuntime.h'
p2775
g339
(g1630
g341
Ntp2776
Rp2777
(dp2778
g1634
g1471
sg1635
g1671
sg365
g1490
sbsS'limits'
p2779
g339
(g1630
g341
Ntp2780
Rp2781
(dp2782
g1634
g1642
sg1635
g1643
sg365
S'c:/marmalade/7.8/s3e/h/std/c++/limits'
p2783
sbsS'IwGeomBBox.h'
p2784
g339
(g1630
g341
Ntp2785
Rp2786
(dp2787
g1634
g1307
sg1635
g1692
sg365
g1365
sbsS's3eContacts.h'
p2788
g339
(g1630
g341
Ntp2789
Rp2790
(dp2791
g1634
g1642
sg1635
g1658
sg365
S'c:/marmalade/7.8/s3e/h/s3eContacts.h'
p2792
sbsS's3eLicense.h'
p2793
g339
(g1630
g341
Ntp2794
Rp2795
(dp2796
g1634
g1642
sg1635
g1658
sg365
S'c:/marmalade/7.8/s3e/h/s3eLicense.h'
p2797
sbsS'iwgx.config.txt'
p2798
g339
(g1630
g341
Ntp2799
Rp2800
(dp2801
g1634
g1407
sg1635
g1764
sg365
g1435
sbsS'IwTextParser.h'
p2802
g339
(g1630
g341
Ntp2803
Rp2804
(dp2805
g1634
g1471
sg1635
g1671
sg365
g1472
sbsS's3eTimer.h'
p2806
g339
(g1630
g341
Ntp2807
Rp2808
(dp2809
g1634
g1642
sg1635
g1658
sg365
S'c:/marmalade/7.8/s3e/h/s3eTimer.h'
p2810
sbsS'IwGeomVec.h'
p2811
g339
(g1630
g341
Ntp2812
Rp2813
(dp2814
g1634
g1307
sg1635
g1692
sg365
g1373
sbsS'IwSerialise.h'
p2815
g339
(g1630
g341
Ntp2816
Rp2817
(dp2818
g1634
g1471
sg1635
g1671
sg365
g1469
sbsS'cstdarg'
p2819
g339
(g1630
g341
Ntp2820
Rp2821
(dp2822
g1634
g1642
sg1635
g1643
sg365
S'c:/marmalade/7.8/s3e/h/std/c++/cstdarg'
p2823
sbsS'gl2ext.h'
p2824
g339
(g1630
g341
Ntp2825
Rp2826
(dp2827
g1634
g1642
sg1635
g1879
sg365
S'c:/marmalade/7.8/s3e/h/GLES2/gl2ext.h'
p2828
sbsS'IwChar.h'
p2829
g339
(g1630
g341
Ntp2830
Rp2831
(dp2832
g1634
g1471
sg1635
g1671
sg365
g1557
sbsS's3eSound.h'
p2833
g339
(g1630
g341
Ntp2834
Rp2835
(dp2836
g1634
g1642
sg1635
g1658
sg365
S'c:/marmalade/7.8/s3e/h/s3eSound.h'
p2837
sbsS'IwOptimiseThumb.h'
p2838
g339
(g1630
g341
Ntp2839
Rp2840
(dp2841
g1634
g1471
sg1635
g1671
sg365
g1494
sbsS'exception.h'
p2842
g339
(g1630
g341
Ntp2843
Rp2844
(dp2845
g1634
g1642
sg1635
g1643
sg365
S'c:/marmalade/7.8/s3e/h/std/c++/exception.h'
p2846
sbsS'iwgeom.config.txt'
p2847
g339
(g1630
g341
Ntp2848
Rp2849
(dp2850
g1634
g1307
sg1635
g1692
sg365
g1375
sbsS'gl31.h'
p2851
g339
(g1630
g341
Ntp2852
Rp2853
(dp2854
g1634
g1642
sg1635
g1944
sg365
S'c:/marmalade/7.8/s3e/h/GLES3/gl31.h'
p2855
sbsS'gl.h'
p2856
g339
(g1630
g341
Ntp2857
Rp2858
(dp2859
g1634
g1642
sg1635
g2202
sg365
S'c:/marmalade/7.8/s3e/h/GLES/gl.h'
p2860
sbsS'zlib.h'
p2861
g339
(g1630
g341
Ntp2862
Rp2863
(dp2864
g1634
g1576
sg1635
g2304
sg365
g1574
sbsS'temp_defines_release.h'
p2865
g339
(g1630
g341
Ntp2866
Rp2867
(dp2868
g1634
(lp2869
sg1635
(lp2870
S"'generated files'"
p2871
asg365
S'c:/Users/ext.vicu/Desktop/App/app/App/build_app_vc12/temp_defines_release.h'
p2872
sbsS'iwgl.mkf'
p2873
g339
(g1630
g341
Ntp2874
Rp2875
(dp2876
g1634
g1264
sg1635
g1652
sg365
g1262
sbsS'IwColour.h'
p2877
g339
(g1630
g341
Ntp2878
Rp2879
(dp2880
g1634
g1407
sg1635
g1764
sg365
g1439
sbsS's3eLibrary.h'
p2881
g339
(g1630
g341
Ntp2882
Rp2883
(dp2884
g1634
g1642
sg1635
g1847
sg365
S'c:/marmalade/7.8/s3e/h/ext/s3eLibrary.h'
p2885
sbsS'types.h'
p2886
g339
(g1630
g341
Ntp2887
Rp2888
(dp2889
g1634
g1642
sg1635
g1778
sg365
S'c:/marmalade/7.8/s3e/h/std/sys/types.h'
p2890
sbsS'ifaddrs.h'
p2891
g339
(g1630
g341
Ntp2892
Rp2893
(dp2894
g1634
g1642
sg1635
g1664
sg365
S'c:/marmalade/7.8/s3e/h/std/ifaddrs.h'
p2895
sbsS'strstream'
p2896
g339
(g1630
g341
Ntp2897
Rp2898
(dp2899
g1634
g1642
sg1635
g1643
sg365
S'c:/marmalade/7.8/s3e/h/std/c++/strstream'
p2900
sbsS'IwTween.cpp'
p2901
g339
(g1630
g341
Ntp2902
Rp2903
(dp2904
g1634
g1586
sg1635
g2139
sg365
g1590
sbsS'exception'
p2905
g339
(g1630
g341
Ntp2906
Rp2907
(dp2908
g1634
g1642
sg1635
g1643
sg365
S'c:/marmalade/7.8/s3e/h/std/c++/exception'
p2909
sbsS's3eAmazonAds.defines.txt'
p2910
g339
(g1630
g341
Ntp2911
Rp2912
(dp2913
g1634
g1216
sg1635
g2545
sg365
g1217
sbsS'rlocks.h'
p2914
g339
(g1630
g341
Ntp2915
Rp2916
(dp2917
g1634
g1642
sg1635
g1643
sg365
S'c:/marmalade/7.8/s3e/h/std/c++/rlocks.h'
p2918
sbsS'ioctl.h'
p2919
g339
(g1630
g341
Ntp2920
Rp2921
(dp2922
g1634
g1642
sg1635
g1778
sg365
S'c:/marmalade/7.8/s3e/h/std/sys/ioctl.h'
p2923
sbsS'rope'
p2924
g339
(g1630
g341
Ntp2925
Rp2926
(dp2927
g1634
g1642
sg1635
g1643
sg365
S'c:/marmalade/7.8/s3e/h/std/c++/rope'
p2928
sbsS'jinclude.h'
p2929
g339
(g1630
g341
Ntp2930
Rp2931
(dp2932
g1634
g1597
sg1635
g1722
sg365
g1616
sbsS'IwEvent.h'
p2933
g339
(g1630
g341
Ntp2934
Rp2935
(dp2936
g1634
g1471
sg1635
g1671
sg365
g1504
sbsS'IwOptimiseSize.h'
p2937
g339
(g1630
g341
Ntp2938
Rp2939
(dp2940
g1634
g1471
sg1635
g1671
sg365
g1563
sbsS'iwgxfont_public.defines.txt'
p2941
g339
(g1630
g341
Ntp2942
Rp2943
(dp2944
g1634
g1285
sg1635
g1636
sg365
g1291
sbsS'iconv.h'
p2945
g339
(g1630
g341
Ntp2946
Rp2947
(dp2948
g1634
g1642
sg1635
g1664
sg365
S'c:/marmalade/7.8/s3e/h/std/iconv.h'
p2949
sbsS'sendfile.h'
p2950
g339
(g1630
g341
Ntp2951
Rp2952
(dp2953
g1634
g1642
sg1635
g1778
sg365
S'c:/marmalade/7.8/s3e/h/std/sys/sendfile.h'
p2954
sbsS'IwGeomSphere.h'
p2955
g339
(g1630
g341
Ntp2956
Rp2957
(dp2958
g1634
g1307
sg1635
g1692
sg365
g1308
sbsS'tiniconv.mkf'
p2959
g339
(g1630
g341
Ntp2960
Rp2961
(dp2962
g1634
g1189
sg1635
g2096
sg365
g1187
sbsS'IwResManagerClass.h'
p2963
g339
(g1630
g341
Ntp2964
Rp2965
(dp2966
g1634
g1383
sg1635
g2187
sg365
g1397
sbsS'jdct.h'
p2967
g339
(g1630
g341
Ntp2968
Rp2969
(dp2970
g1634
g1597
sg1635
g1722
sg365
g1622
sbsS'cctype'
p2971
g339
(g1630
g341
Ntp2972
Rp2973
(dp2974
g1634
g1642
sg1635
g1643
sg365
S'c:/marmalade/7.8/s3e/h/std/c++/cctype'
p2975
sbsS's3eConfig.h'
p2976
g339
(g1630
g341
Ntp2977
Rp2978
(dp2979
g1634
g1642
sg1635
g1658
sg365
S'c:/marmalade/7.8/s3e/h/s3eConfig.h'
p2980
sbsS'IwHashString.h'
p2981
g339
(g1630
g341
Ntp2982
Rp2983
(dp2984
g1634
g1471
sg1635
g1671
sg365
g1523
sbsS'stat.h'
p2985
g339
(g1630
g341
Ntp2986
Rp2987
(dp2988
g1634
g1642
sg1635
g1778
sg365
S'c:/marmalade/7.8/s3e/h/std/sys/stat.h'
p2989
sbsS'byteswap.h'
p2990
g339
(g1630
g341
Ntp2991
Rp2992
(dp2993
g1634
g1642
sg1635
g1664
sg365
S'c:/marmalade/7.8/s3e/h/std/byteswap.h'
p2994
sbsS'iwresmanager.mkf'
p2995
g339
(g1630
g341
Ntp2996
Rp2997
(dp2998
g1634
g1386
sg1635
g2187
sg365
g1384
sbsS'IwUtilInitTerm.h'
p2999
g339
(g1630
g341
Ntp3000
Rp3001
(dp3002
g1634
g1471
sg1635
g1671
sg365
g1498
sbsS'pthread_1.h'
p3003
g339
(g1630
g341
Ntp3004
Rp3005
(dp3006
g1634
g1642
sg1635
g1643
sg365
S'c:/marmalade/7.8/s3e/h/std/c++/pthread.h'
p3007
sbsS'IwMemBucket.h'
p3008
g339
(g1630
g341
Ntp3009
Rp3010
(dp3011
g1634
g1471
sg1635
g1671
sg365
g1500
sbsS'complex'
p3012
g339
(g1630
g341
Ntp3013
Rp3014
(dp3015
g1634
g1642
sg1635
g1643
sg365
S'c:/marmalade/7.8/s3e/h/std/c++/complex'
p3016
sbsS'algorithm'
p3017
g339
(g1630
g341
Ntp3018
Rp3019
(dp3020
g1634
g1642
sg1635
g1643
sg365
S'c:/marmalade/7.8/s3e/h/std/c++/algorithm'
p3021
sbsS's3e.icf'
p3022
g339
(g1630
g341
Ntp3023
Rp3024
(dp3025
g1634
g1642
sg1635
g1658
sg365
S'c:/marmalade/7.8/s3e/s3e.icf'
p3026
sbsS'IwVariableBitField.h'
p3027
g339
(g1630
g341
Ntp3028
Rp3029
(dp3030
g1634
g1471
sg1635
g1671
sg365
g1543
sbsS'sem.h'
p3031
g339
(g1630
g341
Ntp3032
Rp3033
(dp3034
g1634
g1642
sg1635
g1778
sg365
S'c:/marmalade/7.8/s3e/h/std/sys/sem.h'
p3035
sbsS'IwGxFontState.h'
p3036
g339
(g1630
g341
Ntp3037
Rp3038
(dp3039
g1634
g1285
sg1635
g1636
sg365
g1283
sbsS'stdio.h'
p3040
g339
(g1630
g341
Ntp3041
Rp3042
(dp3043
g1634
g1642
sg1635
g1664
sg365
S'c:/marmalade/7.8/s3e/h/std/stdio.h'
p3044
sbsS'jmemsys.h'
p3045
g339
(g1630
g341
Ntp3046
Rp3047
(dp3048
g1634
g1597
sg1635
g1722
sg365
g1614
sbsS'ios'
p3049
g339
(g1630
g341
Ntp3050
Rp3051
(dp3052
g1634
g1642
sg1635
g1643
sg365
S'c:/marmalade/7.8/s3e/h/std/c++/ios'
p3053
sbsS'IwTween.h'
p3054
g339
(g1630
g341
Ntp3055
Rp3056
(dp3057
g1634
g1586
sg1635
g2139
sg365
g1584
sbsS'IwGeomFVec4.h'
p3058
g339
(g1630
g341
Ntp3059
Rp3060
(dp3061
g1634
g1307
sg1635
g1692
sg365
g1367
sbsS'stack'
p3062
g339
(g1630
g341
Ntp3063
Rp3064
(dp3065
g1634
g1642
sg1635
g1643
sg365
S'c:/marmalade/7.8/s3e/h/std/c++/stack'
p3066
sbsS'Audio.cpp'
p3067
g339
(g1630
g341
Ntp3068
Rp3069
(dp3070
g1634
g1199
sg1635
g1907
sg365
g1204
sbsS'new.h'
p3071
g339
(g1630
g341
Ntp3072
Rp3073
(dp3074
g1634
g1642
sg1635
g1643
sg365
S'c:/marmalade/7.8/s3e/h/std/c++/new.h'
p3075
sbsS's3eAmazonAds.h'
p3076
g339
(g1630
g341
Ntp3077
Rp3078
(dp3079
g1634
g1216
sg1635
g2625
sg365
g1222
sbsS's3eEMail.h'
p3080
g339
(g1630
g341
Ntp3081
Rp3082
(dp3083
g1634
g1642
sg1635
g1847
sg365
S'c:/marmalade/7.8/s3e/h/ext/s3eEMail.h'
p3084
sbsS's3eVideo.h'
p3085
g339
(g1630
g341
Ntp3086
Rp3087
(dp3088
g1634
g1642
sg1635
g1658
sg365
S'c:/marmalade/7.8/s3e/h/s3eVideo.h'
p3089
sbsS'pngconf.h'
p3090
g339
(g1630
g341
Ntp3091
Rp3092
(dp3093
g1634
g1169
sg1635
g2355
sg365
g1167
sbsS'pwd.h'
p3094
g339
(g1630
g341
Ntp3095
Rp3096
(dp3097
g1634
g1642
sg1635
g1664
sg365
S'c:/marmalade/7.8/s3e/h/std/pwd.h'
p3098
sbsS'gl3.h'
p3099
g339
(g1630
g341
Ntp3100
Rp3101
(dp3102
g1634
g1642
sg1635
g1944
sg365
S'c:/marmalade/7.8/s3e/h/GLES3/gl3.h'
p3103
sbsS'IwClip.h'
p3104
g339
(g1630
g341
Ntp3105
Rp3106
(dp3107
g1634
g1407
sg1635
g1764
sg365
g1441
sbsS'iwresmanager.config.txt'
p3108
g339
(g1630
g341
Ntp3109
Rp3110
(dp3111
g1634
g1383
sg1635
g2187
sg365
g1401
sbsS'IwGxShaderTechnique.h'
p3112
g339
(g1630
g341
Ntp3113
Rp3114
(dp3115
g1634
g1407
sg1635
g1764
sg365
g1455
sbsS'IwCore.h'
p3116
g339
(g1630
g341
Ntp3117
Rp3118
(dp3119
g1634
g1471
sg1635
g1671
sg365
g1551
sbsS'cfloat'
p3120
g339
(g1630
g341
Ntp3121
Rp3122
(dp3123
g1634
g1642
sg1635
g1643
sg365
S'c:/marmalade/7.8/s3e/h/std/c++/cfloat'
p3124
sbsS'IwGeomMat2D.h'
p3125
g339
(g1630
g341
Ntp3126
Rp3127
(dp3128
g1634
g1307
sg1635
g1692
sg365
g1314
sbsS'IwAllocator.h'
p3129
g339
(g1630
g341
Ntp3130
Rp3131
(dp3132
g1634
g1471
sg1635
g1671
sg365
g1517
sbsS'IwPath.h'
p3133
g339
(g1630
g341
Ntp3134
Rp3135
(dp3136
g1634
g1471
sg1635
g1671
sg365
g1553
sbsS'iwgxfont.mkf'
p3137
g339
(g1630
g341
Ntp3138
Rp3139
(dp3140
g1634
g1288
sg1635
g1636
sg365
g1286
sbsS'IwTexture.h'
p3141
g339
(g1630
g341
Ntp3142
Rp3143
(dp3144
g1634
g1407
sg1635
g1764
sg365
g1433
sbsS'IwGeomVec.h.tpl'
p3145
g339
(g1630
g341
Ntp3146
Rp3147
(dp3148
g1634
g1307
sg1635
g1692
sg365
g1369
sbsS's3eAccelerometer.h'
p3149
g339
(g1630
g341
Ntp3150
Rp3151
(dp3152
g1634
g1642
sg1635
g1658
sg365
S'c:/marmalade/7.8/s3e/h/s3eAccelerometer.h'
p3153
sbsS'setjmp.h'
p3154
g339
(g1630
g341
Ntp3155
Rp3156
(dp3157
g1634
g1642
sg1635
g1664
sg365
S'c:/marmalade/7.8/s3e/h/std/setjmp.h'
p3158
sbsS'IwFile.h'
p3159
g339
(g1630
g341
Ntp3160
Rp3161
(dp3162
g1634
g1471
sg1635
g1671
sg365
g1478
sbsS'IwTextParseable.h'
p3163
g339
(g1630
g341
Ntp3164
Rp3165
(dp3166
g1634
g1471
sg1635
g1671
sg365
g1502
sbsS'istream.h'
p3167
g339
(g1630
g341
Ntp3168
Rp3169
(dp3170
g1634
g1642
sg1635
g1643
sg365
S'c:/marmalade/7.8/s3e/h/std/c++/istream.h'
p3171
sbsS'stdint.h'
p3172
g339
(g1630
g341
Ntp3173
Rp3174
(dp3175
g1634
g1642
sg1635
g1664
sg365
S'c:/marmalade/7.8/s3e/h/std/stdint.h'
p3176
sbsS'semaphore.h'
p3177
g339
(g1630
g341
Ntp3178
Rp3179
(dp3180
g1634
g1642
sg1635
g1664
sg365
S'c:/marmalade/7.8/s3e/h/std/semaphore.h'
p3181
sbsS'ctime'
p3182
g339
(g1630
g341
Ntp3183
Rp3184
(dp3185
g1634
g1642
sg1635
g1643
sg365
S'c:/marmalade/7.8/s3e/h/std/c++/ctime'
p3186
sbsS'sstream'
p3187
g339
(g1630
g341
Ntp3188
Rp3189
(dp3190
g1634
g1642
sg1635
g1643
sg365
S'c:/marmalade/7.8/s3e/h/std/c++/sstream'
p3191
sbsS'IwGeomFBBox.h'
p3192
g339
(g1630
g341
Ntp3193
Rp3194
(dp3195
g1634
g1307
sg1635
g1692
sg365
g1347
sbsS'IwDebugPrim.h'
p3196
g339
(g1630
g341
Ntp3197
Rp3198
(dp3199
g1634
g1407
sg1635
g1764
sg365
g1408
sbsS'IwGxFontContainer.h'
p3200
g339
(g1630
g341
Ntp3201
Rp3202
(dp3203
g1634
g1285
sg1635
g1636
sg365
g1301
sbsS'IwGeomSVec3.h'
p3204
g339
(g1630
g341
Ntp3205
Rp3206
(dp3207
g1634
g1307
sg1635
g1692
sg365
g1316
sbsS'iw2dscenegraphcore.mkf'
p3208
g339
(g1630
g341
Ntp3209
Rp3210
(dp3211
g1634
g1464
sg1635
g2678
sg365
g1462
sbsS's3eExt.h'
p3212
g339
(g1630
g341
Ntp3213
Rp3214
(dp3215
g1634
g1642
sg1635
g1658
sg365
S'c:/marmalade/7.8/s3e/h/s3eExt.h'
p3216
sbsS'IwGeomFVec3.h'
p3217
g339
(g1630
g341
Ntp3218
Rp3219
(dp3220
g1634
g1307
sg1635
g1692
sg365
g1318
sbsS'streambuf'
p3221
g339
(g1630
g341
Ntp3222
Rp3223
(dp3224
g1634
g1642
sg1635
g1643
sg365
S'c:/marmalade/7.8/s3e/h/std/c++/streambuf'
p3225
sbsS's3eMetrics.h'
p3226
g339
(g1630
g341
Ntp3227
Rp3228
(dp3229
g1634
g1642
sg1635
g1847
sg365
S'c:/marmalade/7.8/s3e/h/ext/s3eMetrics.h'
p3230
sbsS'IwGxFont.h'
p3231
g339
(g1630
g341
Ntp3232
Rp3233
(dp3234
g1634
g1285
sg1635
g1636
sg365
g1293
sbsS's3eSecureStorage.h'
p3235
g339
(g1630
g341
Ntp3236
Rp3237
(dp3238
g1634
g1642
sg1635
g1658
sg365
S'c:/marmalade/7.8/s3e/h/s3eSecureStorage.h'
p3239
sbsS'string.h'
p3240
g339
(g1630
g341
Ntp3241
Rp3242
(dp3243
g1634
g1642
sg1635
g1664
sg365
S'c:/marmalade/7.8/s3e/h/std/string.h'
p3244
sbsS'IwResource.h'
p3245
g339
(g1630
g341
Ntp3246
Rp3247
(dp3248
g1634
g1471
sg1635
g1671
sg365
g1567
sbsS'IwGeomSVec2.h'
p3249
g339
(g1630
g341
Ntp3250
Rp3251
(dp3252
g1634
g1307
sg1635
g1692
sg365
g1326
sbsS'libjpeg.mkf'
p3253
g339
(g1630
g341
Ntp3254
Rp3255
(dp3256
g1634
g1626
sg1635
(lp3257
g1592
asg365
g1624
sbsS'IwGxDebug.h'
p3258
g339
(g1630
g341
Ntp3259
Rp3260
(dp3261
g1634
g1407
sg1635
g1764
sg365
g1427
sbsS'pthread_types.h'
p3262
g339
(g1630
g341
Ntp3263
Rp3264
(dp3265
g1634
g1642
sg1635
g1664
sg365
S'c:/marmalade/7.8/s3e/h/std/pthread_types.h'
p3266
sbsS'iomanip.h'
p3267
g339
(g1630
g341
Ntp3268
Rp3269
(dp3270
g1634
g1642
sg1635
g1643
sg365
S'c:/marmalade/7.8/s3e/h/std/c++/iomanip.h'
p3271
sbsS'Audio.h'
p3272
g339
(g1630
g341
Ntp3273
Rp3274
(dp3275
g1634
g1199
sg1635
g1907
sg365
g1202
sbsS'IwKeymap.h'
p3276
g339
(g1630
g341
Ntp3277
Rp3278
(dp3279
g1634
g1471
sg1635
g1671
sg365
g1527
sbsS'IwDebug.h'
p3280
g339
(g1630
g341
Ntp3281
Rp3282
(dp3283
g1634
g1471
sg1635
g1671
sg365
g1565
sbsS's3eIOSBackgroundAudio.h'
p3284
g339
(g1630
g341
Ntp3285
Rp3286
(dp3287
g1634
g1642
sg1635
g1847
sg365
S'c:/marmalade/7.8/s3e/h/ext/s3eIOSBackgroundAudio.h'
p3288
sbsS'IwGeomMenu.h'
p3289
g339
(g1630
g341
Ntp3290
Rp3291
(dp3292
g1634
g1307
sg1635
g1692
sg365
g1343
sbsS'IwDivTable.h'
p3293
g339
(g1630
g341
Ntp3294
Rp3295
(dp3296
g1634
g1471
sg1635
g1671
sg365
g1476
sbsS'ctype.h'
p3297
g339
(g1630
g341
Ntp3298
Rp3299
(dp3300
g1634
g1642
sg1635
g1664
sg365
S'c:/marmalade/7.8/s3e/h/std/ctype.h'
p3301
sbsS'IwGeomMat.h'
p3302
g339
(g1630
g341
Ntp3303
Rp3304
(dp3305
g1634
g1307
sg1635
g1692
sg365
g1335
sbsS'IwResGroup.h'
p3306
g339
(g1630
g341
Ntp3307
Rp3308
(dp3309
g1634
g1383
sg1635
g2187
sg365
g1395
sbsS'signal_1.h'
p3310
g339
(g1630
g341
Ntp3311
Rp3312
(dp3313
g1634
g1642
sg1635
g1778
sg365
S'c:/marmalade/7.8/s3e/h/std/sys/signal.h'
p3314
sbsS'functional'
p3315
g339
(g1630
g341
Ntp3316
Rp3317
(dp3318
g1634
g1642
sg1635
g1643
sg365
S'c:/marmalade/7.8/s3e/h/std/c++/functional'
p3319
sbsS'shm.h'
p3320
g339
(g1630
g341
Ntp3321
Rp3322
(dp3323
g1634
g1642
sg1635
g1778
sg365
S'c:/marmalade/7.8/s3e/h/std/sys/shm.h'
p3324
sbsS'IwManagedList.h'
p3325
g339
(g1630
g341
Ntp3326
Rp3327
(dp3328
g1634
g1471
sg1635
g1671
sg365
g1521
sbsS'prctl.h'
p3329
g339
(g1630
g341
Ntp3330
Rp3331
(dp3332
g1634
g1642
sg1635
g1778
sg365
S'c:/marmalade/7.8/s3e/h/std/sys/prctl.h'
p3333
sbsS'un.h'
p3334
g339
(g1630
g341
Ntp3335
Rp3336
(dp3337
g1634
g1642
sg1635
g1778
sg365
S'c:/marmalade/7.8/s3e/h/std/sys/un.h'
p3338
sbsS'temp_defines_debug.h'
p3339
g339
(g1630
g341
Ntp3340
Rp3341
(dp3342
g1634
(lp3343
sg1635
(lp3344
g2871
asg365
S'c:/Users/ext.vicu/Desktop/App/app/App/build_app_vc12/temp_defines_debug.h'
p3345
sbsS'utility'
p3346
g339
(g1630
g341
Ntp3347
Rp3348
(dp3349
g1634
g1642
sg1635
g1643
sg365
S'c:/marmalade/7.8/s3e/h/std/c++/utility'
p3350
sbsS'IwGeomLegacy.h'
p3351
g339
(g1630
g341
Ntp3352
Rp3353
(dp3354
g1634
g1307
sg1635
g1692
sg365
g1339
sbsS'IwTPage.h'
p3355
g339
(g1630
g341
Ntp3356
Rp3357
(dp3358
g1634
g1407
sg1635
g1764
sg365
g1431
sbsS'IwResSerialise.h'
p3359
g339
(g1630
g341
Ntp3360
Rp3361
(dp3362
g1634
g1383
sg1635
g2187
sg365
g1391
sbsS's3eCrypto.h'
p3363
g339
(g1630
g341
Ntp3364
Rp3365
(dp3366
g1634
g1642
sg1635
g1658
sg365
S'c:/marmalade/7.8/s3e/h/s3eCrypto.h'
p3367
sbsS's3eKeyboard.h'
p3368
g339
(g1630
g341
Ntp3369
Rp3370
(dp3371
g1634
g1642
sg1635
g1658
sg365
S'c:/marmalade/7.8/s3e/h/s3eKeyboard.h'
p3372
sbsS'fcntl.h'
p3373
g339
(g1630
g341
Ntp3374
Rp3375
(dp3376
g1634
g1642
sg1635
g1664
sg365
S'c:/marmalade/7.8/s3e/h/std/fcntl.h'
p3377
sbsS'Iw2DSceneGraphCore.h'
p3378
g339
(g1630
g341
Ntp3379
Rp3380
(dp3381
g1634
g1461
sg1635
g2678
sg365
g1459
sbsS'memory.h'
p3382
g339
(g1630
g341
Ntp3383
Rp3384
(dp3385
g1634
g1642
sg1635
g1664
sg365
S'c:/marmalade/7.8/s3e/h/std/memory.h'
p3386
sbsS'pthread.h'
p3387
g339
(g1630
g341
Ntp3388
Rp3389
(dp3390
g1634
g1642
sg1635
g1664
sg365
S'c:/marmalade/7.8/s3e/h/std/pthread.h'
p3391
sbsS'IwGeomIntersect.h'
p3392
g339
(g1630
g341
Ntp3393
Rp3394
(dp3395
g1634
g1307
sg1635
g1692
sg365
g1324
sbsS'IwTextParserITX.h'
p3396
g339
(g1630
g341
Ntp3397
Rp3398
(dp3399
g1634
g1471
sg1635
g1671
sg365
g1492
sbsS'egl_1.h'
p3400
g339
(g1630
g341
Ntp3401
Rp3402
(dp3403
g1634
g1642
sg1635
g2202
sg365
S'c:/marmalade/7.8/s3e/h/GLES/egl.h'
p3404
sbsS'Iw2DSceneGraph.cpp'
p3405
g339
(g1630
g341
Ntp3406
Rp3407
(dp3408
g1634
g1249
sg1635
g1887
sg365
g1247
sbsS'ostream.h'
p3409
g339
(g1630
g341
Ntp3410
Rp3411
(dp3412
g1634
g1642
sg1635
g1643
sg365
S'c:/marmalade/7.8/s3e/h/std/c++/ostream.h'
p3413
sbsS'stl_user_config.h'
p3414
g339
(g1630
g341
Ntp3415
Rp3416
(dp3417
g1634
g1642
sg1635
g1643
sg365
S'c:/marmalade/7.8/s3e/h/std/c++/stl_user_config.h'
p3418
sbsS'iwgx.mkf'
p3419
g339
(g1630
g341
Ntp3420
Rp3421
(dp3422
g1634
g1420
sg1635
g1764
sg365
g1418
sbsS'IwProfileMenu.h'
p3423
g339
(g1630
g341
Ntp3424
Rp3425
(dp3426
g1634
g1471
sg1635
g1671
sg365
g1531
sbsS'MarmaladeVersion.h'
p3427
g339
(g1630
g341
Ntp3428
Rp3429
(dp3430
g1634
g1642
sg1635
g1658
sg365
S'c:/marmalade/7.8/s3e/h/MarmaladeVersion.h'
p3431
sbsS'gl3platform.h'
p3432
g339
(g1630
g341
Ntp3433
Rp3434
(dp3435
g1634
g1642
sg1635
g1944
sg365
S'c:/marmalade/7.8/s3e/h/GLES3/gl3platform.h'
p3436
sbsS'ios.h'
p3437
g339
(g1630
g341
Ntp3438
Rp3439
(dp3440
g1634
g1642
sg1635
g1643
sg365
S'c:/marmalade/7.8/s3e/h/std/c++/ios.h'
p3441
sbsS'IwImageHelper.h'
p3442
g339
(g1630
g341
Ntp3443
Rp3444
(dp3445
g1634
g1471
sg1635
g1671
sg365
g1535
sbsS'hash_set'
p3446
g339
(g1630
g341
Ntp3447
Rp3448
(dp3449
g1634
g1642
sg1635
g1643
sg365
S'c:/marmalade/7.8/s3e/h/std/c++/hash_set'
p3450
sbsS'IwGeomFQuat.h'
p3451
g339
(g1630
g341
Ntp3452
Rp3453
(dp3454
g1634
g1307
sg1635
g1692
sg365
g1361
sbsS'jmorecfg.h'
p3455
g339
(g1630
g341
Ntp3456
Rp3457
(dp3458
g1634
g1597
sg1635
g1722
sg365
g1618
sbsS'eglplatform.h'
p3459
g339
(g1630
g341
Ntp3460
Rp3461
(dp3462
g1634
g1642
sg1635
g1976
sg365
S'c:/marmalade/7.8/s3e/h/EGL/eglplatform.h'
p3463
sbsS'cmath'
p3464
g339
(g1630
g341
Ntp3465
Rp3466
(dp3467
g1634
g1642
sg1635
g1643
sg365
S'c:/marmalade/7.8/s3e/h/std/c++/cmath'
p3468
sbsS'math_gcc.h'
p3469
g339
(g1630
g341
Ntp3470
Rp3471
(dp3472
g1634
g1642
sg1635
g1664
sg365
S'c:/marmalade/7.8/s3e/h/std/math_gcc.h'
p3473
sbsS's3eMemory.h'
p3474
g339
(g1630
g341
Ntp3475
Rp3476
(dp3477
g1634
g1642
sg1635
g1658
sg365
S'c:/marmalade/7.8/s3e/h/s3eMemory.h'
p3478
sbsS'strings.h'
p3479
g339
(g1630
g341
Ntp3480
Rp3481
(dp3482
g1634
g1642
sg1635
g1664
sg365
S'c:/marmalade/7.8/s3e/h/std/strings.h'
p3483
sbsS's3eFile.h'
p3484
g339
(g1630
g341
Ntp3485
Rp3486
(dp3487
g1634
g1642
sg1635
g1658
sg365
S'c:/marmalade/7.8/s3e/h/s3eFile.h'
p3488
sbsS'IwGxTypes.h'
p3489
g339
(g1630
g341
Ntp3490
Rp3491
(dp3492
g1634
g1407
sg1635
g1764
sg365
g1414
sbsS'cerrno'
p3493
g339
(g1630
g341
Ntp3494
Rp3495
(dp3496
g1634
g1642
sg1635
g1643
sg365
S'c:/marmalade/7.8/s3e/h/std/c++/cerrno'
p3497
sbsS'resource.h'
p3498
g339
(g1630
g341
Ntp3499
Rp3500
(dp3501
g1634
g1642
sg1635
g1778
sg365
S'c:/marmalade/7.8/s3e/h/std/sys/resource.h'
p3502
sbsS'clocale'
p3503
g339
(g1630
g341
Ntp3504
Rp3505
(dp3506
g1634
g1642
sg1635
g1643
sg365
S'c:/marmalade/7.8/s3e/h/std/c++/clocale'
p3507
sbsS'pvrtextool.mkf'
p3508
g339
(g1630
g341
Ntp3509
Rp3510
(dp3511
g1634
g1237
sg1635
g2234
sg365
g1235
sbsS'csetjmp'
p3512
g339
(g1630
g341
Ntp3513
Rp3514
(dp3515
g1634
g1642
sg1635
g1643
sg365
S'c:/marmalade/7.8/s3e/h/std/c++/csetjmp'
p3516
sbsS'netdb.h'
p3517
g339
(g1630
g341
Ntp3518
Rp3519
(dp3520
g1634
g1642
sg1635
g1664
sg365
S'c:/marmalade/7.8/s3e/h/std/netdb.h'
p3521
sbsS's3eAndroidJNI.h'
p3522
g339
(g1630
g341
Ntp3523
Rp3524
(dp3525
g1634
g1642
sg1635
g1847
sg365
S'c:/marmalade/7.8/s3e/h/ext/s3eAndroidJNI.h'
p3526
sbsS'stdexcept'
p3527
g339
(g1630
g341
Ntp3528
Rp3529
(dp3530
g1634
g1642
sg1635
g1643
sg365
S'c:/marmalade/7.8/s3e/h/std/c++/stdexcept'
p3531
sbsS'math.h'
p3532
g339
(g1630
g341
Ntp3533
Rp3534
(dp3535
g1634
g1642
sg1635
g1664
sg365
S'c:/marmalade/7.8/s3e/h/std/math.h'
p3536
sbsS'stdbool.h'
p3537
g339
(g1630
g341
Ntp3538
Rp3539
(dp3540
g1634
g1642
sg1635
g1664
sg365
S'c:/marmalade/7.8/s3e/h/std/stdbool.h'
p3541
sbsS'uio.h'
p3542
g339
(g1630
g341
Ntp3543
Rp3544
(dp3545
g1634
g1642
sg1635
g1778
sg365
S'c:/marmalade/7.8/s3e/h/std/sys/uio.h'
p3546
sbsS'IwUncopyable.h'
p3547
g339
(g1630
g341
Ntp3548
Rp3549
(dp3550
g1634
g1471
sg1635
g1671
sg365
g1537
sbssS'juice_build_type'
p3551
g4
sS'tests'
p3552
(lp3553
sS'project_name'
p3554
g347
sS'root_file'
p3555
g141
sS'current_root'
p3556
S'c:/Users/ext.vicu/Desktop/App/app/App'
p3557
sS'dependencies'
p3558
(lp3559
sS'include_paths'
p3560
(lp3561
S'c:/marmalade/7.8/extensions/s3eamazonads/h'
p3562
aS'c:/marmalade/7.8/modules/iwutil/h'
p3563
aS'c:/marmalade/7.8/modules/third_party/libjpeg/h'
p3564
aS'c:/marmalade/7.8/modules/third_party/zlib/h'
p3565
aS'c:/marmalade/7.8/modules/third_party/libpng/h'
p3566
aS'c:/marmalade/7.8/modules/iw2dscenegraphcore/h'
p3567
aS'c:/marmalade/7.8/modules/iw2dscenegraph/h'
p3568
aS'c:/marmalade/7.8/modules/iw2d/h'
p3569
aS'c:/marmalade/7.8/modules/iwgx/h'
p3570
aS'c:/marmalade/7.8/modules/iwgl/h'
p3571
aS'c:/marmalade/7.8/modules/iwgeom/h'
p3572
aS'c:/marmalade/7.8/modules/iwresmanager/h'
p3573
aS'c:/marmalade/7.8/extensions/pvrtextool/h'
p3574
aS'c:/marmalade/7.8/modules/iwgxfont/h'
p3575
aS'c:/marmalade/7.8/modules/third_party/tiniconv/source'
p3576
aS'c:/marmalade/7.8/modules/iwtween/h'
p3577
aS'c:/marmalade/7.8/s3e/h'
p3578
aS'c:/marmalade/7.8/s3e/h/ext'
p3579
aS'c:/marmalade/7.8/s3e/h/std'
p3580
aS'c:/marmalade/7.8/s3e/h/std/c++'
p3581
aS'c:/marmalade/7.8/s3e/h/ext_legacy'
p3582
aS'c:/marmalade/7.8/s3e/h/legacy'
p3583
asS'weak_frameworks'
p3584
(lp3585
sS'extprojects'
p3586
(dp3587
sg649
(dp3588
g643
(lp3589
(g95
S'.'
p3590
I0
tp3591
asS'Data'
p3592
(lp3593
(S'c:/Users/ext.vicu/Desktop/App/app/App/data/textures'
p3594
S'textures'
p3595
I0
tp3596
assS'macro_types'
p3597
(dp3598
g572
I0
sg574
I1
sg575
I0
sg576
I0
sg577
I0
sg578
I0
sg580
I0
sg581
I0
sg582
I0
sg583
I0
sg584
I0
sg585
I0
sg587
I0
sg588
I0
sg589
I0
sg590
I0
sg591
I0
sg592
I0
sg593
I0
sg594
I0
sg595
I0
sg597
I0
sg598
I0
sg599
I0
sg600
I0
sg601
I0
sg602
I0
sg603
I0
sg604
I1
sg605
I0
sg606
I0
sg607
I0
sg608
I0
sg609
I01
sg610
I1
sg611
I0
sg612
I0
sg613
I0
sg614
I0
sg615
I0
sg616
I0
sg617
I0
ssS'commands'
p3599
(lp3600
sg651
(g1156
S'VC12'
p3601
S'X86ARMAARCH64'
p3602
tp3603
sS'build_libs'
p3604
(dp3605
sg653
g0
sS'frameworks'
p3606
(lp3607
sS'environ'
p3608
(dp3609
S'NACL_ROOT'
p3610
S'c:\\marmalade\\7.8/tools/gcc/x86_64/nacl_windows'
p3611
ssS'target_name_debug'
p3612
g347
sS'builders'
p3613
(dp3614
g643
(dp3615
S'.S'
p3616
(dp3617
S'gcc_aarch64'
p3618
(lp3619
S'.obj'
p3620
aS'echo AARCH64 Assembling(GCC) ${SOURCE}...'
p3621
aS'c:/marmalade/7.8/s3e\\gcc\\win32\\aarch64\\bin\\aarch64-none-elf-gcc -c -o ${TARGET} ${SOURCE}'
p3622
asS'rvct'
p3623
(lp3624
g3620
aS'echo ARM Assembling(RVCT) ${SOURCE}...'
p3625
aS'c:/marmalade/7.8/s3e\\rvct\\bin\\armasm -o ${TARGET} ${SOURCE}'
p3626
asg468
(lp3627
g3620
aS'echo ARM Assembling(GCC) ${SOURCE}...'
p3628
aS'c:/marmalade/7.8/s3e\\gcc\\win32\\arm\\bin\\arm-none-eabi-gcc -c -o ${TARGET} ${SOURCE}'
p3629
asS'ppu'
p3630
(lp3631
S'.a'
p3632
aS'echo PPU Assembling(SNC) ${SOURCE}...'
p3633
aS'c:/marmalade/7.8/s3e\\rvct\\bin\\armasm -o ${TARGET} ${SOURCE}'
p3634
assS'.s'
p3635
g3617
sS'.vp'
p3636
(lp3637
NaS'"C:/Marmalade/7.8/s3e/python/python.exe" "c:/marmalade/7.8/modules/iwgx/tools/compile_shaders.py" ${SOURCE}'
p3638
asssS'extproject_names'
p3639
(lp3640
sbtp3641
.